(lp0
(S'1505832314'
p1
S'1505832350'
p2
I9
tp3
a(g2
g1
I9
tp4
a(S'2888358094'
p5
g1
I8
tp6
a(g1
g5
I8
tp7
a(S'281858836'
p8
g5
I12
tp9
a(g5
g8
I12
tp10
a(S'2888358091'
p11
g8
I19
tp12
a(g8
g11
I19
tp13
a(S'2888358088'
p14
g11
I15
tp15
a(g11
g14
I15
tp16
a(S'281858850'
p17
g14
I11
tp18
a(g14
g17
I11
tp19
a(S'281858862'
p20
g17
I35
tp21
a(g17
g20
I35
tp22
a(S'281858878'
p23
g20
I32
tp24
a(g20
g23
I32
tp25
a(S'1505832366'
p26
g23
I26
tp27
a(g23
g26
I26
tp28
a(S'281858891'
p29
g26
I23
tp30
a(g26
g29
I23
tp31
a(S'1715025799'
p32
g29
I51
tp33
a(g29
g32
I51
tp34
a(S'1715025801'
p35
g32
I4
tp36
a(g32
g35
I4
tp37
a(S'1926299703'
p38
g35
I25
tp39
a(g35
g38
I25
tp40
a(S'281858921'
p41
g38
I22
tp42
a(g38
g41
I22
tp43
a(S'1505832367'
p44
g41
I24
tp45
a(g41
g44
I24
tp46
a(S'1927657765'
p47
g44
I12
tp48
a(g44
g47
I12
tp49
a(S'281858939'
p50
g47
I4
tp51
a(g47
g50
I4
tp52
a(S'281858958'
p53
g50
I34
tp54
a(g50
g53
I34
tp55
a(S'1923753497'
p56
g53
I26
tp57
a(g53
g56
I26
tp58
a(S'1505832338'
p59
g56
I28
tp60
a(g56
g59
I28
tp61
a(S'1613270561'
p62
g59
I37
tp63
a(g59
g62
I37
tp64
a(S'1926335103'
p65
g62
I7
tp66
a(g62
g65
I7
tp67
a(S'281858988'
p68
g65
I32
tp69
a(g65
g68
I32
tp70
a(S'1923744268'
p71
g68
I23
tp72
a(g68
g71
I23
tp73
a(S'281859004'
p74
g71
I30
tp75
a(g71
g74
I30
tp76
a(S'281859018'
p77
g74
I40
tp78
a(g74
g77
I40
tp79
a(S'1821041631'
p80
g77
I20
tp81
a(g77
g80
I20
tp82
a(S'281859032'
p83
g80
I32
tp84
a(g80
g83
I32
tp85
a(S'1923744311'
p86
g83
I9
tp87
a(g83
g86
I9
tp88
a(S'1923744304'
p89
g86
I3
tp90
a(g86
g89
I3
tp91
a(S'1923744301'
p92
g89
I4
tp93
a(g89
g92
I4
tp94
a(S'281859054'
p95
g92
I4
tp96
a(g92
g95
I4
tp97
a(S'481695399'
p98
g95
I7
tp99
a(g95
g98
I7
tp100
a(S'281859063'
p101
g98
I9
tp102
a(g98
g101
I9
tp103
a(S'1450232746'
p104
S'1585304132'
p105
I15
tp106
a(g105
g104
I15
tp107
a(S'1928136260'
p108
S'1450232746'
p109
I9
tp110
a(g109
g108
I9
tp111
a(S'1928136282'
p112
g108
I2
tp113
a(g108
g112
I2
tp114
a(S'1928136301'
p115
g112
I3
tp116
a(g112
g115
I3
tp117
a(S'1450232878'
p118
g115
I3
tp119
a(g115
g118
I3
tp120
a(S'1924311191'
p121
S'1504662520'
p122
I19
tp123
a(g122
g121
I19
tp124
a(S'1925449518'
p125
S'1925449471'
p126
I7
tp127
a(g126
g125
I7
tp128
a(S'1925449524'
p129
g125
I6
tp130
a(g125
g129
I6
tp131
a(S'1923744268'
p132
g129
I5
tp133
a(g129
g132
I5
tp134
a(S'1767875323'
p135
S'1928136290'
p136
I4
tp137
a(g136
g135
I4
tp138
a(S'1585304132'
p139
g135
I4
tp140
a(g135
g139
I4
tp141
a(S'1450232710'
p142
g139
I10
tp143
a(g139
g142
I10
tp144
a(S'1450232878'
p145
g142
I3
tp146
a(g142
g145
I3
tp147
a(S'1450232907'
p148
g145
I9
tp149
a(g145
g148
I9
tp150
a(S'1924311236'
p151
g148
I4
tp152
a(g148
g151
I4
tp153
a(S'1924311195'
p154
g151
I3
tp155
a(g151
g154
I3
tp156
a(S'1936239778'
p157
g154
I5
tp158
a(g154
g157
I5
tp159
a(S'1936239789'
p160
g157
I2
tp161
a(g157
g160
I2
tp162
a(S'1450232656'
p163
S'1450232878'
p164
I3
tp165
a(g164
g163
I3
tp166
a(S'1928136308'
p167
g163
I3
tp168
a(g163
g167
I3
tp169
a(S'1926299696'
p170
g167
I15
tp171
a(g167
g170
I15
tp172
a(S'1450232781'
p173
g170
I13
tp174
a(g170
g173
I13
tp175
a(S'1450232665'
p176
g173
I16
tp177
a(g173
g176
I16
tp178
a(S'1924342322'
p179
g176
I3
tp180
a(g176
g179
I3
tp181
a(S'1924342366'
p182
g179
I7
tp183
a(g179
g182
I7
tp184
a(S'1924342249'
p185
g182
I2
tp186
a(g182
g185
I2
tp187
a(S'339375701'
p188
g185
I1
tp189
a(g185
g188
I1
tp190
a(S'1924342305'
p191
g188
I2
tp192
a(g188
g191
I2
tp193
a(S'1924342320'
p194
g191
I7
tp195
a(g191
g194
I7
tp196
a(S'1926299776'
p197
S'1606967716'
p198
I8
tp199
a(g198
g197
I8
tp200
a(S'1926299755'
p201
g197
I5
tp202
a(g197
g201
I5
tp203
a(S'1450232984'
p204
g201
I3
tp205
a(g201
g204
I3
tp206
a(S'1450232907'
p207
g204
I4
tp208
a(g204
g207
I4
tp209
a(S'1863635342'
p210
S'1863635344'
p211
I3
tp212
a(g211
g210
I3
tp213
a(S'1926344335'
p214
g210
I2
tp215
a(g210
g214
I2
tp216
a(S'1924285209'
p217
g214
I1
tp218
a(g214
g217
I1
tp219
a(S'1926344379'
p220
g217
I2
tp221
a(g217
g220
I2
tp222
a(S'1863635340'
p223
g220
I2
tp224
a(g220
g223
I2
tp225
a(S'3151286456'
p226
g223
I2
tp227
a(g223
g226
I2
tp228
a(S'3151286455'
p229
g226
I3
tp230
a(g226
g229
I3
tp231
a(S'3151286454'
p232
g229
I8
tp233
a(g229
g232
I8
tp234
a(S'1924311213'
p235
g232
I17
tp236
a(g232
g235
I17
tp237
a(S'1863635337'
p238
g235
I33
tp239
a(g235
g238
I33
tp240
a(S'1924285130'
p241
S'1924285118'
p242
I5
tp243
a(g242
g241
I5
tp244
a(S'1924285146'
p245
g241
I9
tp246
a(g241
g245
I9
tp247
a(S'1924285220'
p248
g245
I4
tp249
a(g245
g248
I4
tp250
a(S'1924285123'
p251
g248
I6
tp252
a(g248
g251
I6
tp253
a(S'1924285155'
p254
g251
I2
tp255
a(g251
g254
I2
tp256
a(S'1924285211'
p257
g254
I11
tp258
a(g254
g257
I11
tp259
a(S'1924285105'
p260
g257
I4
tp261
a(g257
g260
I4
tp262
a(S'1924285157'
p263
g260
I5
tp264
a(g260
g263
I5
tp265
a(S'1924285124'
p266
g263
I5
tp267
a(g263
g266
I5
tp268
a(S'1976894083'
p269
g266
I7
tp270
a(g266
g269
I7
tp271
a(S'1551379939'
p272
g269
I16
tp273
a(g269
g272
I16
tp274
a(S'1924285106'
p275
g272
I4
tp276
a(g272
g275
I4
tp277
a(S'1926299704'
p278
g275
I22
tp279
a(g275
g278
I22
tp280
a(S'1923744323'
p281
g278
I9
tp282
a(g278
g281
I9
tp283
a(S'1924285189'
p284
g281
I2
tp285
a(g281
g284
I2
tp286
a(S'1923744340'
p287
g284
I31
tp288
a(g284
g287
I31
tp289
a(S'1923753475'
p290
g287
I7
tp291
a(g287
g290
I7
tp292
a(S'1976894045'
p293
g290
I11
tp294
a(g290
g293
I11
tp295
a(S'1923744286'
p296
g293
I4
tp297
a(g293
g296
I4
tp298
a(S'1923744259'
p299
g296
I30
tp300
a(g296
g299
I30
tp301
a(S'1923744324'
p302
g299
I18
tp303
a(g299
g302
I18
tp304
a(S'1926335059'
p305
g302
I25
tp306
a(g302
g305
I25
tp307
a(S'1923744281'
p308
g305
I9
tp309
a(g305
g308
I9
tp310
a(S'1925449471'
p311
g308
I15
tp312
a(g308
g311
I15
tp313
a(S'1923744333'
p314
g311
I4
tp315
a(g311
g314
I4
tp316
a(S'1923744328'
p317
g314
I41
tp318
a(g314
g317
I41
tp319
a(S'1923744337'
p320
g317
I28
tp321
a(g317
g320
I28
tp322
a(S'1923744306'
p323
g320
I30
tp324
a(g320
g323
I30
tp325
a(S'1926335059'
p326
S'2033799172'
p327
I7
tp328
a(g327
g326
I7
tp329
a(S'1926335063'
p330
g326
I6
tp331
a(g326
g330
I6
tp332
a(S'1926335103'
p333
g330
I11
tp334
a(g330
g333
I11
tp335
a(S'1926335104'
p336
g333
I6
tp337
a(g333
g336
I6
tp338
a(S'1926390161'
p339
S'1926390113'
p340
I4
tp341
a(g340
g339
I4
tp342
a(S'1926390116'
p343
g339
I1
tp344
a(g339
g343
I1
tp345
a(S'1926390146'
p346
g343
I12
tp347
a(g343
g346
I12
tp348
a(S'1926390164'
p349
g346
I2
tp350
a(g346
g349
I2
tp351
a(S'1926390166'
p352
S'1924311188'
p353
I1
tp354
a(g353
g352
I1
tp355
a(S'1924311179'
p356
S'1926390154'
p357
I1
tp358
a(g357
g356
I1
tp359
a(S'1924311191'
p360
S'1926427394'
p361
I20
tp362
a(g361
g360
I20
tp363
a(S'1926390155'
p364
S'1926427461'
p365
I1
tp366
a(g365
g364
I1
tp367
a(S'1926390115'
p368
g364
I2
tp369
a(g364
g368
I2
tp370
a(S'1926427405'
p371
g368
I76
tp372
a(g368
g371
I76
tp373
a(S'1926427522'
p374
g371
I2
tp375
a(g371
g374
I2
tp376
a(S'1924311179'
p377
S'1926390155'
p378
I2
tp379
a(g378
g377
I2
tp380
a(S'1926390167'
p381
S'1450232689'
p382
I6
tp383
a(g382
g381
I6
tp384
a(S'1926390140'
p385
g381
I4
tp386
a(g381
g385
I4
tp387
a(S'1926427394'
p388
g385
I16
tp389
a(g385
g388
I16
tp390
a(S'1926390110'
p391
g388
I1
tp392
a(g388
g391
I1
tp393
a(S'1924311188'
p394
g391
I13
tp395
a(g391
g394
I13
tp396
a(S'1926390111'
p397
S'1926390115'
p398
I2
tp399
a(g398
g397
I2
tp400
a(S'1924311108'
p401
S'1924311246'
p402
I2
tp403
a(g402
g401
I2
tp404
a(S'1926299702'
p405
g401
I2
tp406
a(g401
g405
I2
tp407
a(S'1924311224'
p408
g405
I2
tp409
a(g405
g408
I2
tp410
a(S'1924311168'
p411
g408
I4
tp412
a(g408
g411
I4
tp413
a(S'1926427449'
p414
g411
I39
tp415
a(g411
g414
I39
tp416
a(S'1924311114'
p417
g414
I38
tp418
a(g414
g417
I38
tp419
a(S'1926445433'
p420
S'1926445418'
p421
I9
tp422
a(g421
g420
I9
tp423
a(S'1924311246'
p424
S'1928136340'
p425
I12
tp426
a(g425
g424
I12
tp427
a(S'1932767884'
p428
S'1932767873'
p429
I16
tp430
a(g429
g428
I16
tp431
a(S'1932767831'
p432
g428
I9
tp433
a(g428
g432
I9
tp434
a(S'1928136232'
p435
S'1928136316'
p436
I24
tp437
a(g436
g435
I24
tp438
a(S'1932767871'
p439
g435
I0
tp440
a(g435
g439
I0
tp441
a(S'1932767863'
p442
g439
I0
tp443
a(g439
g442
I0
tp444
a(S'1928136290'
p445
g442
I4
tp446
a(g442
g445
I4
tp447
a(S'1928136328'
p448
g445
I37
tp449
a(g445
g448
I37
tp450
a(S'1928136275'
p451
g448
I8
tp452
a(g448
g451
I8
tp453
a(S'1928136341'
p454
g451
I2
tp455
a(g451
g454
I2
tp456
a(S'1928136340'
p457
g454
I3
tp458
a(g454
g457
I3
tp459
a(S'1928136305'
p460
g457
I3
tp461
a(g457
g460
I3
tp462
a(S'1928136235'
p463
g460
I17
tp464
a(g460
g463
I17
tp465
a(S'1928136298'
p466
g463
I10
tp467
a(g463
g466
I10
tp468
a(S'1947827928'
p469
g466
I4
tp470
a(g466
g469
I4
tp471
a(S'1933039889'
p472
S'1933039879'
p473
I32
tp474
a(g473
g472
I32
tp475
a(S'1933039841'
p476
S'1933039913'
p477
I4
tp478
a(g477
g476
I4
tp479
a(S'1933039904'
p480
g476
I5
tp481
a(g476
g480
I5
tp482
a(S'1933039879'
p483
g480
I13
tp484
a(g480
g483
I13
tp485
a(S'1933039891'
p486
g483
I36
tp487
a(g483
g486
I36
tp488
a(S'1933039929'
p489
g486
I1
tp490
a(g486
g489
I1
tp491
a(S'1933039833'
p492
g489
I1
tp493
a(g489
g492
I1
tp494
a(S'1983396672'
p495
g492
I5
tp496
a(g492
g495
I5
tp497
a(S'1933039842'
p498
g495
I3
tp499
a(g495
g498
I3
tp500
a(S'1933039910'
p501
g498
I2
tp502
a(g498
g501
I2
tp503
a(S'1926427506'
p504
g501
I1
tp505
a(g501
g504
I1
tp506
a(S'1450232730'
p507
S'1951503193'
p508
I3
tp509
a(g508
g507
I3
tp510
a(S'1450232674'
p511
g507
I3
tp512
a(g507
g511
I3
tp513
a(S'1924311114'
p514
g511
I7
tp515
a(g511
g514
I7
tp516
a(S'1924311120'
p517
g514
I2
tp518
a(g514
g517
I2
tp519
a(S'1924311233'
p520
g517
I2
tp521
a(g517
g520
I2
tp522
a(S'1927657849'
p523
g520
I14
tp524
a(g520
g523
I14
tp525
a(S'1668187802'
p526
g523
I4
tp527
a(g523
g526
I4
tp528
a(S'1450232698'
p529
g526
I6
tp530
a(g526
g529
I6
tp531
a(S'1668187798'
p532
g529
I20
tp533
a(g529
g532
I20
tp534
a(S'1450232788'
p535
g532
I12
tp536
a(g532
g535
I12
tp537
a(S'1450232668'
p538
g535
I42
tp539
a(g535
g538
I42
tp540
a(S'1933039913'
p541
g538
I15
tp542
a(g538
g541
I15
tp543
a(S'1927657929'
p544
g541
I24
tp545
a(g541
g544
I24
tp546
a(S'1927657925'
p547
g544
I20
tp548
a(g544
g547
I20
tp549
a(S'1947819572'
p550
g547
I7
tp551
a(g547
g550
I7
tp552
a(S'1976894086'
p553
g550
I37
tp554
a(g550
g553
I37
tp555
a(S'1976894100'
p556
g553
I14
tp557
a(g553
g556
I14
tp558
a(S'1976894133'
p559
g556
I8
tp560
a(g556
g559
I8
tp561
a(S'1976894161'
p562
g559
I9
tp563
a(g559
g562
I9
tp564
a(S'1999591895'
p565
g562
I2
tp566
a(g562
g565
I2
tp567
a(S'1976894069'
p568
g565
I4
tp569
a(g565
g568
I4
tp570
a(S'1976894136'
p571
g568
I6
tp572
a(g568
g571
I6
tp573
a(S'1976894055'
p574
g571
I5
tp575
a(g571
g574
I5
tp576
a(S'1976894148'
p577
g574
I10
tp578
a(g574
g577
I10
tp579
a(S'1976894052'
p580
g577
I7
tp581
a(g577
g580
I7
tp582
a(S'2016012246'
p583
g580
I3
tp584
a(g580
g583
I3
tp585
a(S'1976894158'
p586
g583
I1
tp587
a(g583
g586
I1
tp588
a(S'1976894200'
p589
g586
I9
tp590
a(g586
g589
I9
tp591
a(S'1976894154'
p592
g589
I11
tp593
a(g589
g592
I11
tp594
a(S'1976894058'
p595
g592
I16
tp596
a(g592
g595
I16
tp597
a(S'1606967716'
p598
S'1951503146'
p599
I3
tp600
a(g599
g598
I3
tp601
a(S'1450232746'
p602
g598
I7
tp603
a(g598
g602
I7
tp604
a(S'1976894047'
p605
S'1923753475'
p606
I5
tp607
a(g606
g605
I5
tp608
a(S'1951503205'
p609
g605
I4
tp610
a(g605
g609
I4
tp611
a(S'1976894096'
p612
g609
I2
tp613
a(g609
g612
I2
tp614
a(S'1976894177'
p615
g612
I1
tp616
a(g612
g615
I1
tp617
a(S'1976894145'
p618
g615
I1
tp619
a(g615
g618
I1
tp620
a(S'1976894144'
p621
g618
I3
tp622
a(g618
g621
I3
tp623
a(S'1976894068'
p624
g621
I1
tp625
a(g621
g624
I1
tp626
a(S'1976894203'
p627
g624
I4
tp628
a(g624
g627
I4
tp629
a(S'1976894199'
p630
g627
I22
tp631
a(g627
g630
I22
tp632
a(S'1976894135'
p633
g630
I41
tp634
a(g630
g633
I41
tp635
a(S'2017459402'
p636
g633
I5
tp637
a(g633
g636
I5
tp638
a(S'2017459396'
p639
g636
I17
tp640
a(g636
g639
I17
tp641
a(S'1951503146'
p642
g639
I20
tp643
a(g639
g642
I20
tp644
a(S'2017459398'
p645
S'1928136341'
p646
I6
tp647
a(g646
g645
I6
tp648
a(S'2017459391'
p649
g645
I3
tp650
a(g645
g649
I3
tp651
a(S'2017459396'
p652
g649
I1
tp653
a(g649
g652
I1
tp654
a(g365
g397
I4
tp655
a(g397
g365
I4
tp656
a(g365
g339
I26
tp657
a(g339
g365
I26
tp658
a(g365
g381
I33
tp659
a(g381
g365
I33
tp660
a(g365
g352
I9
tp661
a(g352
g365
I9
tp662
a(g365
g349
I12
tp663
a(g349
g365
I12
tp664
a(g365
g394
I11
tp665
a(g394
g365
I11
tp666
a(g365
g343
I24
tp667
a(g343
g365
I24
tp668
a(g365
g398
I3
tp669
a(g398
g365
I3
tp670
a(g365
g340
I26
tp671
a(g340
g365
I26
tp672
a(g365
g391
I24
tp673
a(g391
g365
I24
tp674
a(g365
g382
I37
tp675
a(g382
g365
I37
tp676
a(g365
g421
I37
tp677
a(g421
g365
I37
tp678
a(g365
S'b-Engineering 3'
p679
I34
tp680
a(g679
g365
I34
tp681
a(g365
g377
I3
tp682
a(g377
g365
I3
tp683
a(g365
g357
I4
tp684
a(g357
g365
I4
tp685
a(g365
g378
I1
tp686
a(g378
g365
I1
tp687
a(g365
g630
I39
tp688
a(g630
g365
I39
tp689
a(g365
g385
I29
tp690
a(g385
g365
I29
tp691
a(g365
g346
I12
tp692
a(g346
g365
I12
tp693
a(g365
g414
I28
tp694
a(g414
g365
I28
tp695
a(g365
g388
I24
tp696
a(g388
g365
I24
tp697
a(g365
g420
I32
tp698
a(g420
g365
I32
tp699
a(g86
g562
I30
tp700
a(g562
g86
I30
tp701
a(g86
g98
I19
tp702
a(g98
g86
I19
tp703
a(g86
g101
I28
tp704
a(g101
g86
I28
tp705
a(g86
g89
I3
tp706
a(g89
g86
I3
tp707
a(g86
g92
I7
tp708
a(g92
g86
I7
tp709
a(g86
g95
I11
tp710
a(g95
g86
I11
tp711
a(g86
g568
I31
tp712
a(g568
g86
I31
tp713
a(g86
g571
I34
tp714
a(g571
g86
I34
tp715
a(g86
g559
I32
tp716
a(g559
g86
I32
tp717
a(g86
g556
I37
tp718
a(g556
g86
I37
tp719
a(g86
g83
I9
tp720
a(g83
g86
I9
tp721
a(g86
g574
I37
tp722
a(g574
g86
I37
tp723
a(g86
g565
I30
tp724
a(g565
g86
I30
tp725
a(g278
g284
I11
tp726
a(g284
g278
I11
tp727
a(g278
g53
I28
tp728
a(g53
g278
I28
tp729
a(g38
g41
I22
tp730
a(g41
g38
I22
tp731
a(g38
g269
I30
tp732
a(g269
g38
I30
tp733
a(g38
g251
I10
tp734
a(g251
g38
I10
tp735
a(g38
g266
I24
tp736
a(g266
g38
I24
tp737
a(g38
g257
I10
tp738
a(g257
g38
I10
tp739
a(g38
g242
I33
tp740
a(g242
g38
I33
tp741
a(g38
g245
I19
tp742
a(g245
g38
I19
tp743
a(g38
g254
I8
tp744
a(g254
g38
I8
tp745
a(g38
g263
I19
tp746
a(g263
g38
I19
tp747
a(g38
g32
I29
tp748
a(g32
g38
I29
tp749
a(g38
g248
I16
tp750
a(g248
g38
I16
tp751
a(g38
g241
I28
tp752
a(g241
g38
I28
tp753
a(g38
g35
I25
tp754
a(g35
g38
I25
tp755
a(g38
g260
I13
tp756
a(g260
g38
I13
tp757
a(g278
g272
I26
tp758
a(g272
g278
I26
tp759
a(g278
g47
I15
tp760
a(g47
g278
I15
tp761
a(g278
g44
I26
tp762
a(g44
g278
I26
tp763
a(g278
g50
I12
tp764
a(g50
g278
I12
tp765
a(g278
g281
I9
tp766
a(g281
g278
I9
tp767
a(g278
g275
I22
tp768
a(g275
g278
I22
tp769
a(g41
g38
I22
tp770
a(g38
g41
I22
tp771
a(g41
g269
I11
tp772
a(g269
g41
I11
tp773
a(g41
g251
I30
tp774
a(g251
g41
I30
tp775
a(g41
g266
I10
tp776
a(g266
g41
I10
tp777
a(g41
g257
I17
tp778
a(g257
g41
I17
tp779
a(g41
g272
I24
tp780
a(g272
g41
I24
tp781
a(g41
g254
I27
tp782
a(g254
g41
I27
tp783
a(g41
g263
I11
tp784
a(g263
g41
I11
tp785
a(g41
g248
I36
tp786
a(g248
g41
I36
tp787
a(g41
g47
I36
tp788
a(g47
g41
I36
tp789
a(g41
g44
I24
tp790
a(g44
g41
I24
tp791
a(g41
g275
I28
tp792
a(g275
g41
I28
tp793
a(g41
g260
I13
tp794
a(g260
g41
I13
tp795
a(g483
g480
I13
tp796
a(g480
g483
I13
tp797
a(g483
g538
I23
tp798
a(g538
g483
I23
tp799
a(g483
g544
I37
tp800
a(g544
g483
I37
tp801
a(g483
g472
I32
tp802
a(g472
g483
I32
tp803
a(g483
g486
I36
tp804
a(g486
g483
I36
tp805
a(g483
g311
I34
tp806
a(g311
g483
I34
tp807
a(g483
g125
I36
tp808
a(g125
g483
I36
tp809
a(g483
g492
I38
tp810
a(g492
g483
I38
tp811
a(g483
g314
I32
tp812
a(g314
g483
I32
tp813
a(g483
g489
I37
tp814
a(g489
g483
I37
tp815
a(g483
g476
I18
tp816
a(g476
g483
I18
tp817
a(g483
g129
I38
tp818
a(g129
g483
I38
tp819
a(g483
g541
I22
tp820
a(g541
g483
I22
tp821
a(g397
g365
I4
tp822
a(g365
g397
I4
tp823
a(g397
g339
I23
tp824
a(g339
g397
I23
tp825
a(g397
g381
I33
tp826
a(g381
g397
I33
tp827
a(g397
g352
I6
tp828
a(g352
g397
I6
tp829
a(g397
g349
I9
tp830
a(g349
g397
I9
tp831
a(g397
g394
I8
tp832
a(g394
g397
I8
tp833
a(g397
g343
I21
tp834
a(g343
g397
I21
tp835
a(g397
g398
I2
tp836
a(g398
g397
I2
tp837
a(g397
g340
I23
tp838
a(g340
g397
I23
tp839
a(g397
g391
I22
tp840
a(g391
g397
I22
tp841
a(g397
g382
I38
tp842
a(g382
g397
I38
tp843
a(g397
g421
I38
tp844
a(g421
g397
I38
tp845
a(g397
g679
I32
tp846
a(g679
g397
I32
tp847
a(g397
g377
I1
tp848
a(g377
g397
I1
tp849
a(g397
g357
I2
tp850
a(g357
g397
I2
tp851
a(g397
g378
I3
tp852
a(g378
g397
I3
tp853
a(g397
g385
I30
tp854
a(g385
g397
I30
tp855
a(g397
g346
I9
tp856
a(g346
g397
I9
tp857
a(g397
g414
I32
tp858
a(g414
g397
I32
tp859
a(g397
g388
I22
tp860
a(g388
g397
I22
tp861
a(g397
g420
I32
tp862
a(g420
g397
I32
tp863
a(g562
g86
I30
tp864
a(g86
g562
I30
tp865
a(g562
g577
I27
tp866
a(g577
g562
I27
tp867
a(g562
g553
I32
tp868
a(g553
g562
I32
tp869
a(g562
g323
I36
tp870
a(g323
g562
I36
tp871
a(g562
g89
I31
tp872
a(g89
g562
I31
tp873
a(g562
g92
I35
tp874
a(g92
g562
I35
tp875
a(g562
g586
I39
tp876
a(g586
g562
I39
tp877
a(g562
g568
I6
tp878
a(g568
g562
I6
tp879
a(g562
g583
I38
tp880
a(g583
g562
I38
tp881
a(g562
g571
I12
tp882
a(g571
g562
I12
tp883
a(g562
g80
I39
tp884
a(g80
g562
I39
tp885
a(g562
g559
I9
tp886
a(g559
g562
I9
tp887
a(g562
g556
I18
tp888
a(g556
g562
I18
tp889
a(g562
g580
I34
tp890
a(g580
g562
I34
tp891
a(g562
g83
I27
tp892
a(g83
g562
I27
tp893
a(g562
g574
I17
tp894
a(g574
g562
I17
tp895
a(g562
g565
I2
tp896
a(g565
g562
I2
tp897
a(g98
g86
I19
tp898
a(g86
g98
I19
tp899
a(g98
g101
I9
tp900
a(g101
g98
I9
tp901
a(g98
g89
I16
tp902
a(g89
g98
I16
tp903
a(g98
g92
I11
tp904
a(g92
g98
I11
tp905
a(g98
g95
I7
tp906
a(g95
g98
I7
tp907
a(g98
g83
I28
tp908
a(g83
g98
I28
tp909
a(g636
g381
I28
tp910
a(g381
g636
I28
tp911
a(g636
g451
I23
tp912
a(g451
g636
I23
tp913
a(g636
g405
I11
tp914
a(g405
g636
I11
tp915
a(g636
g401
I13
tp916
a(g401
g636
I13
tp917
a(g636
g408
I11
tp918
a(g408
g636
I11
tp919
a(g636
g645
I18
tp920
a(g645
g636
I18
tp921
a(g636
g382
I23
tp922
a(g382
g636
I23
tp923
a(g636
g360
I38
tp924
a(g360
g636
I38
tp925
a(g636
g411
I13
tp926
a(g411
g636
I13
tp927
a(g636
g421
I23
tp928
a(g421
g636
I23
tp929
a(g636
g649
I17
tp930
a(g649
g636
I17
tp931
a(g636
g633
I5
tp932
a(g633
g636
I5
tp933
a(g636
g646
I21
tp934
a(g646
g636
I21
tp935
a(g636
g457
I21
tp936
a(g457
g636
I21
tp937
a(g636
g463
I38
tp938
a(g463
g636
I38
tp939
a(g636
g652
I17
tp940
a(g652
g636
I17
tp941
a(g636
g448
I30
tp942
a(g448
g636
I30
tp943
a(g636
g385
I31
tp944
a(g385
g636
I31
tp945
a(g636
g424
I15
tp946
a(g424
g636
I15
tp947
a(g636
g460
I23
tp948
a(g460
g636
I23
tp949
a(g636
g642
I38
tp950
a(g642
g636
I38
tp951
a(g636
g420
I30
tp952
a(g420
g636
I30
tp953
a(g339
g365
I26
tp954
a(g365
g339
I26
tp955
a(g339
g397
I23
tp956
a(g397
g339
I23
tp957
a(g339
g381
I18
tp958
a(g381
g339
I18
tp959
a(g339
g352
I17
tp960
a(g352
g339
I17
tp961
a(g339
g349
I14
tp962
a(g349
g339
I14
tp963
a(g339
g405
I35
tp964
a(g405
g339
I35
tp965
a(g339
g401
I35
tp966
a(g401
g339
I35
tp967
a(g339
g122
I37
tp968
a(g122
g339
I37
tp969
a(g339
g394
I15
tp970
a(g394
g339
I15
tp971
a(g339
g408
I34
tp972
a(g408
g339
I34
tp973
a(g339
g343
I1
tp974
a(g343
g339
I1
tp975
a(g339
g398
I26
tp976
a(g398
g339
I26
tp977
a(g339
g340
I4
tp978
a(g340
g339
I4
tp979
a(g339
g391
I1
tp980
a(g391
g339
I1
tp981
a(g339
g382
I25
tp982
a(g382
g339
I25
tp983
a(g339
g360
I18
tp984
a(g360
g339
I18
tp985
a(g339
g469
I32
tp986
a(g469
g339
I32
tp987
a(g339
g411
I32
tp988
a(g411
g339
I32
tp989
a(g339
g466
I36
tp990
a(g466
g339
I36
tp991
a(g339
g421
I25
tp992
a(g421
g339
I25
tp993
a(g339
g377
I23
tp994
a(g377
g339
I23
tp995
a(g339
g463
I36
tp996
a(g463
g339
I36
tp997
a(g339
g357
I22
tp998
a(g357
g339
I22
tp999
a(g339
g378
I26
tp1000
a(g378
g339
I26
tp1001
a(g339
g385
I18
tp1002
a(g385
g339
I18
tp1003
a(g339
g346
I14
tp1004
a(g346
g339
I14
tp1005
a(g339
g424
I35
tp1006
a(g424
g339
I35
tp1007
a(g339
g388
I2
tp1008
a(g388
g339
I2
tp1009
a(g339
g420
I16
tp1010
a(g420
g339
I16
tp1011
a(g381
g365
I33
tp1012
a(g365
g381
I33
tp1013
a(g381
g397
I33
tp1014
a(g397
g381
I33
tp1015
a(g381
g636
I28
tp1016
a(g636
g381
I28
tp1017
a(g381
g339
I18
tp1018
a(g339
g381
I18
tp1019
a(g381
g352
I27
tp1020
a(g352
g381
I27
tp1021
a(g381
g349
I27
tp1022
a(g349
g381
I27
tp1023
a(g381
g451
I39
tp1024
a(g451
g381
I39
tp1025
a(g381
g405
I20
tp1026
a(g405
g381
I20
tp1027
a(g381
g401
I21
tp1028
a(g401
g381
I21
tp1029
a(g381
g122
I38
tp1030
a(g122
g381
I38
tp1031
a(g381
g394
I26
tp1032
a(g394
g381
I26
tp1033
a(g381
g408
I18
tp1034
a(g408
g381
I18
tp1035
a(g381
g645
I39
tp1036
a(g645
g381
I39
tp1037
a(g381
g343
I19
tp1038
a(g343
g381
I19
tp1039
a(g381
g398
I36
tp1040
a(g398
g381
I36
tp1041
a(g381
g340
I23
tp1042
a(g340
g381
I23
tp1043
a(g381
g391
I18
tp1044
a(g391
g381
I18
tp1045
a(g381
g382
I6
tp1046
a(g382
g381
I6
tp1047
a(g381
g360
I22
tp1048
a(g360
g381
I22
tp1049
a(g381
g469
I37
tp1050
a(g469
g381
I37
tp1051
a(g381
g411
I15
tp1052
a(g411
g381
I15
tp1053
a(g381
g421
I6
tp1054
a(g421
g381
I6
tp1055
a(g381
g633
I25
tp1056
a(g633
g381
I25
tp1057
a(g381
g646
I37
tp1058
a(g646
g381
I37
tp1059
a(g381
g457
I34
tp1060
a(g457
g381
I34
tp1061
a(g381
g377
I32
tp1062
a(g377
g381
I32
tp1063
a(g381
g463
I35
tp1064
a(g463
g381
I35
tp1065
a(g381
g357
I31
tp1066
a(g357
g381
I31
tp1067
a(g381
g378
I34
tp1068
a(g378
g381
I34
tp1069
a(g381
g630
I36
tp1070
a(g630
g381
I36
tp1071
a(g381
g385
I4
tp1072
a(g385
g381
I4
tp1073
a(g381
g346
I25
tp1074
a(g346
g381
I25
tp1075
a(g381
g424
I22
tp1076
a(g424
g381
I22
tp1077
a(g381
g414
I31
tp1078
a(g414
g381
I31
tp1079
a(g381
g388
I17
tp1080
a(g388
g381
I17
tp1081
a(g381
g460
I33
tp1082
a(g460
g381
I33
tp1083
a(g381
g420
I2
tp1084
a(g420
g381
I2
tp1085
a(g352
g365
I9
tp1086
a(g365
g352
I9
tp1087
a(g352
g397
I6
tp1088
a(g397
g352
I6
tp1089
a(g352
g339
I17
tp1090
a(g339
g352
I17
tp1091
a(g352
g381
I27
tp1092
a(g381
g352
I27
tp1093
a(g352
g349
I3
tp1094
a(g349
g352
I3
tp1095
a(g352
g394
I1
tp1096
a(g394
g352
I1
tp1097
a(g352
g343
I15
tp1098
a(g343
g352
I15
tp1099
a(g352
g398
I9
tp1100
a(g398
g352
I9
tp1101
a(g352
g340
I17
tp1102
a(g340
g352
I17
tp1103
a(g352
g391
I15
tp1104
a(g391
g352
I15
tp1105
a(g352
g382
I32
tp1106
a(g382
g352
I32
tp1107
a(g352
g360
I35
tp1108
a(g360
g352
I35
tp1109
a(g352
g421
I32
tp1110
a(g421
g352
I32
tp1111
a(g352
g679
I36
tp1112
a(g679
g352
I36
tp1113
a(g352
g377
I6
tp1114
a(g377
g352
I6
tp1115
a(g352
g357
I5
tp1116
a(g357
g352
I5
tp1117
a(g352
g378
I9
tp1118
a(g378
g352
I9
tp1119
a(g352
g385
I24
tp1120
a(g385
g352
I24
tp1121
a(g352
g346
I3
tp1122
a(g346
g352
I3
tp1123
a(g352
g414
I31
tp1124
a(g414
g352
I31
tp1125
a(g352
g388
I15
tp1126
a(g388
g352
I15
tp1127
a(g352
g420
I25
tp1128
a(g420
g352
I25
tp1129
a(g349
g365
I12
tp1130
a(g365
g349
I12
tp1131
a(g349
g397
I9
tp1132
a(g397
g349
I9
tp1133
a(g349
g339
I14
tp1134
a(g339
g349
I14
tp1135
a(g349
g381
I27
tp1136
a(g381
g349
I27
tp1137
a(g349
g352
I3
tp1138
a(g352
g349
I3
tp1139
a(g349
g394
I2
tp1140
a(g394
g349
I2
tp1141
a(g349
g343
I12
tp1142
a(g343
g349
I12
tp1143
a(g349
g398
I12
tp1144
a(g398
g349
I12
tp1145
a(g349
g340
I14
tp1146
a(g340
g349
I14
tp1147
a(g349
g391
I12
tp1148
a(g391
g349
I12
tp1149
a(g349
g382
I32
tp1150
a(g382
g349
I32
tp1151
a(g349
g360
I32
tp1152
a(g360
g349
I32
tp1153
a(g349
g421
I32
tp1154
a(g421
g349
I32
tp1155
a(g349
g679
I36
tp1156
a(g679
g349
I36
tp1157
a(g349
g377
I9
tp1158
a(g377
g349
I9
tp1159
a(g349
g357
I8
tp1160
a(g357
g349
I8
tp1161
a(g349
g378
I12
tp1162
a(g378
g349
I12
tp1163
a(g349
g385
I24
tp1164
a(g385
g349
I24
tp1165
a(g349
g346
I2
tp1166
a(g346
g349
I2
tp1167
a(g349
g414
I34
tp1168
a(g414
g349
I34
tp1169
a(g349
g388
I12
tp1170
a(g388
g349
I12
tp1171
a(g349
g420
I25
tp1172
a(g420
g349
I25
tp1173
a(g14
g11
I15
tp1174
a(g11
g14
I15
tp1175
a(g14
g17
I11
tp1176
a(g17
g14
I11
tp1177
a(g14
g8
I35
tp1178
a(g8
g14
I35
tp1179
a(g299
g330
I39
tp1180
a(g330
g299
I39
tp1181
a(g299
g514
I35
tp1182
a(g514
g299
I35
tp1183
a(g299
g229
I37
tp1184
a(g229
g299
I37
tp1185
a(g299
g232
I29
tp1186
a(g232
g299
I29
tp1187
a(g299
g235
I16
tp1188
a(g235
g299
I16
tp1189
a(g299
g523
I17
tp1190
a(g523
g299
I17
tp1191
a(g299
g517
I33
tp1192
a(g517
g299
I33
tp1193
a(g299
g62
I24
tp1194
a(g62
g299
I24
tp1195
a(g299
g59
I18
tp1196
a(g59
g299
I18
tp1197
a(g299
g333
I31
tp1198
a(g333
g299
I31
tp1199
a(g299
g336
I29
tp1200
a(g336
g299
I29
tp1201
a(g299
g296
I30
tp1202
a(g296
g299
I30
tp1203
a(g299
g293
I35
tp1204
a(g293
g299
I35
tp1205
a(g299
g526
I14
tp1206
a(g526
g299
I14
tp1207
a(g299
g238
I28
tp1208
a(g238
g299
I28
tp1209
a(g299
g532
I19
tp1210
a(g532
g299
I19
tp1211
a(g299
g302
I18
tp1212
a(g302
g299
I18
tp1213
a(g299
g529
I10
tp1214
a(g529
g299
I10
tp1215
a(g299
g520
I30
tp1216
a(g520
g299
I30
tp1217
a(g299
g535
I30
tp1218
a(g535
g299
I30
tp1219
a(g101
g86
I28
tp1220
a(g86
g101
I28
tp1221
a(g101
g98
I9
tp1222
a(g98
g101
I9
tp1223
a(g101
g89
I24
tp1224
a(g89
g101
I24
tp1225
a(g101
g92
I20
tp1226
a(g92
g101
I20
tp1227
a(g101
g95
I16
tp1228
a(g95
g101
I16
tp1229
a(g101
g83
I37
tp1230
a(g83
g101
I37
tp1231
a(g451
g636
I23
tp1232
a(g636
g451
I23
tp1233
a(g451
g381
I39
tp1234
a(g381
g451
I39
tp1235
a(g451
g405
I20
tp1236
a(g405
g451
I20
tp1237
a(g451
g401
I18
tp1238
a(g401
g451
I18
tp1239
a(g451
g122
I28
tp1240
a(g122
g451
I28
tp1241
a(g451
g408
I23
tp1242
a(g408
g451
I23
tp1243
a(g451
g645
I6
tp1244
a(g645
g451
I6
tp1245
a(g451
g197
I31
tp1246
a(g197
g451
I31
tp1247
a(g451
g382
I38
tp1248
a(g382
g451
I38
tp1249
a(g451
g360
I36
tp1250
a(g360
g451
I36
tp1251
a(g451
g204
I39
tp1252
a(g204
g451
I39
tp1253
a(g451
g469
I35
tp1254
a(g469
g451
I35
tp1255
a(g451
g411
I28
tp1256
a(g411
g451
I28
tp1257
a(g451
g466
I34
tp1258
a(g466
g451
I34
tp1259
a(g451
g421
I38
tp1260
a(g421
g451
I38
tp1261
a(g451
g201
I36
tp1262
a(g201
g451
I36
tp1263
a(g451
g649
I9
tp1264
a(g649
g451
I9
tp1265
a(g451
g633
I28
tp1266
a(g633
g451
I28
tp1267
a(g451
g646
I2
tp1268
a(g646
g451
I2
tp1269
a(g451
g457
I5
tp1270
a(g457
g451
I5
tp1271
a(g451
g463
I24
tp1272
a(g463
g451
I24
tp1273
a(g451
g652
I11
tp1274
a(g652
g451
I11
tp1275
a(g451
g598
I24
tp1276
a(g598
g451
I24
tp1277
a(g451
g448
I8
tp1278
a(g448
g451
I8
tp1279
a(g451
g424
I17
tp1280
a(g424
g451
I17
tp1281
a(g451
g602
I30
tp1282
a(g602
g451
I30
tp1283
a(g451
g460
I8
tp1284
a(g460
g451
I8
tp1285
a(g451
g108
I39
tp1286
a(g108
g451
I39
tp1287
a(g451
g642
I20
tp1288
a(g642
g451
I20
tp1289
a(g405
g636
I11
tp1290
a(g636
g405
I11
tp1291
a(g405
g339
I35
tp1292
a(g339
g405
I35
tp1293
a(g405
g381
I20
tp1294
a(g381
g405
I20
tp1295
a(g405
g451
I20
tp1296
a(g451
g405
I20
tp1297
a(g405
g401
I2
tp1298
a(g401
g405
I2
tp1299
a(g405
g122
I32
tp1300
a(g122
g405
I32
tp1301
a(g405
g408
I2
tp1302
a(g408
g405
I2
tp1303
a(g405
g645
I18
tp1304
a(g645
g405
I18
tp1305
a(g405
g343
I36
tp1306
a(g343
g405
I36
tp1307
a(g405
g340
I39
tp1308
a(g340
g405
I39
tp1309
a(g405
g391
I36
tp1310
a(g391
g405
I36
tp1311
a(g405
g382
I18
tp1312
a(g382
g405
I18
tp1313
a(g405
g360
I27
tp1314
a(g360
g405
I27
tp1315
a(g405
g469
I35
tp1316
a(g469
g405
I35
tp1317
a(g405
g411
I7
tp1318
a(g411
g405
I7
tp1319
a(g405
g466
I37
tp1320
a(g466
g405
I37
tp1321
a(g405
g421
I18
tp1322
a(g421
g405
I18
tp1323
a(g405
g649
I20
tp1324
a(g649
g405
I20
tp1325
a(g405
g633
I12
tp1326
a(g633
g405
I12
tp1327
a(g405
g646
I18
tp1328
a(g646
g405
I18
tp1329
a(g405
g457
I16
tp1330
a(g457
g405
I16
tp1331
a(g405
g463
I28
tp1332
a(g463
g405
I28
tp1333
a(g405
g652
I21
tp1334
a(g652
g405
I21
tp1335
a(g405
g448
I29
tp1336
a(g448
g405
I29
tp1337
a(g405
g385
I24
tp1338
a(g385
g405
I24
tp1339
a(g405
g424
I4
tp1340
a(g424
g405
I4
tp1341
a(g405
g388
I35
tp1342
a(g388
g405
I35
tp1343
a(g405
g460
I16
tp1344
a(g460
g405
I16
tp1345
a(g405
g420
I22
tp1346
a(g420
g405
I22
tp1347
a(g577
g562
I27
tp1348
a(g562
g577
I27
tp1349
a(g577
g592
I33
tp1350
a(g592
g577
I33
tp1351
a(g577
g586
I12
tp1352
a(g586
g577
I12
tp1353
a(g577
g568
I21
tp1354
a(g568
g577
I21
tp1355
a(g577
g583
I11
tp1356
a(g583
g577
I11
tp1357
a(g577
g571
I15
tp1358
a(g571
g577
I15
tp1359
a(g577
g589
I22
tp1360
a(g589
g577
I22
tp1361
a(g577
g559
I36
tp1362
a(g559
g577
I36
tp1363
a(g577
g580
I7
tp1364
a(g580
g577
I7
tp1365
a(g577
g574
I10
tp1366
a(g574
g577
I10
tp1367
a(g577
g565
I25
tp1368
a(g565
g577
I25
tp1369
a(g160
g197
I23
tp1370
a(g197
g160
I23
tp1371
a(g160
g112
I24
tp1372
a(g112
g160
I24
tp1373
a(g160
g139
I34
tp1374
a(g139
g160
I34
tp1375
a(g160
g154
I5
tp1376
a(g154
g160
I5
tp1377
a(g160
g207
I12
tp1378
a(g207
g160
I12
tp1379
a(g160
g204
I15
tp1380
a(g204
g160
I15
tp1381
a(g160
g201
I18
tp1382
a(g201
g160
I18
tp1383
a(g160
g170
I35
tp1384
a(g170
g160
I35
tp1385
a(g160
g163
I20
tp1386
a(g163
g160
I20
tp1387
a(g160
g142
I24
tp1388
a(g142
g160
I24
tp1389
a(g160
g598
I32
tp1390
a(g598
g160
I32
tp1391
a(g160
g164
I21
tp1392
a(g164
g160
I21
tp1393
a(g160
g157
I2
tp1394
a(g157
g160
I2
tp1395
a(g160
g602
I31
tp1396
a(g602
g160
I31
tp1397
a(g401
g636
I13
tp1398
a(g636
g401
I13
tp1399
a(g401
g339
I35
tp1400
a(g339
g401
I35
tp1401
a(g401
g381
I21
tp1402
a(g381
g401
I21
tp1403
a(g401
g451
I18
tp1404
a(g451
g401
I18
tp1405
a(g401
g405
I2
tp1406
a(g405
g401
I2
tp1407
a(g401
g122
I29
tp1408
a(g122
g401
I29
tp1409
a(g401
g408
I5
tp1410
a(g408
g401
I5
tp1411
a(g401
g645
I17
tp1412
a(g645
g401
I17
tp1413
a(g401
g343
I36
tp1414
a(g343
g401
I36
tp1415
a(g401
g340
I39
tp1416
a(g340
g401
I39
tp1417
a(g401
g391
I36
tp1418
a(g391
g401
I36
tp1419
a(g401
g382
I19
tp1420
a(g382
g401
I19
tp1421
a(g401
g360
I25
tp1422
a(g360
g401
I25
tp1423
a(g401
g469
I33
tp1424
a(g469
g401
I33
tp1425
a(g401
g411
I10
tp1426
a(g411
g401
I10
tp1427
a(g401
g466
I34
tp1428
a(g466
g401
I34
tp1429
a(g401
g421
I19
tp1430
a(g421
g401
I19
tp1431
a(g401
g649
I19
tp1432
a(g649
g401
I19
tp1433
a(g401
g633
I15
tp1434
a(g633
g401
I15
tp1435
a(g401
g646
I16
tp1436
a(g646
g401
I16
tp1437
a(g401
g457
I14
tp1438
a(g457
g401
I14
tp1439
a(g401
g463
I25
tp1440
a(g463
g401
I25
tp1441
a(g401
g652
I20
tp1442
a(g652
g401
I20
tp1443
a(g401
g448
I27
tp1444
a(g448
g401
I27
tp1445
a(g401
g385
I26
tp1446
a(g385
g401
I26
tp1447
a(g401
g424
I2
tp1448
a(g424
g401
I2
tp1449
a(g401
g388
I35
tp1450
a(g388
g401
I35
tp1451
a(g401
g460
I14
tp1452
a(g460
g401
I14
tp1453
a(g401
g642
I38
tp1454
a(g642
g401
I38
tp1455
a(g401
g420
I22
tp1456
a(g420
g401
I22
tp1457
a(g160
g135
I39
tp1458
a(g135
g160
I39
tp1459
a(g160
g115
I22
tp1460
a(g115
g160
I22
tp1461
a(g160
g167
I21
tp1462
a(g167
g160
I21
tp1463
a(g160
g108
I26
tp1464
a(g108
g160
I26
tp1465
a(g160
g642
I33
tp1466
a(g642
g160
I33
tp1467
a(g160
g151
I8
tp1468
a(g151
g160
I8
tp1469
a(g269
g38
I30
tp1470
a(g38
g269
I30
tp1471
a(g269
g41
I11
tp1472
a(g41
g269
I11
tp1473
a(g269
g251
I35
tp1474
a(g251
g269
I35
tp1475
a(g269
g266
I7
tp1476
a(g266
g269
I7
tp1477
a(g269
g257
I22
tp1478
a(g257
g269
I22
tp1479
a(g269
g272
I16
tp1480
a(g272
g269
I16
tp1481
a(g269
g254
I33
tp1482
a(g254
g269
I33
tp1483
a(g269
g263
I12
tp1484
a(g263
g269
I12
tp1485
a(g269
g47
I32
tp1486
a(g47
g269
I32
tp1487
a(g269
g44
I21
tp1488
a(g44
g269
I21
tp1489
a(g269
g50
I36
tp1490
a(g50
g269
I36
tp1491
a(g269
g275
I20
tp1492
a(g275
g269
I20
tp1493
a(g269
g260
I17
tp1494
a(g260
g269
I17
tp1495
a(g553
g562
I32
tp1496
a(g562
g553
I32
tp1497
a(g553
g323
I10
tp1498
a(g323
g553
I10
tp1499
a(g553
g568
I38
tp1500
a(g568
g553
I38
tp1501
a(g553
g550
I37
tp1502
a(g550
g553
I37
tp1503
a(g553
g80
I20
tp1504
a(g80
g553
I20
tp1505
a(g553
g559
I22
tp1506
a(g559
g553
I22
tp1507
a(g553
g320
I32
tp1508
a(g320
g553
I32
tp1509
a(g553
g556
I14
tp1510
a(g556
g553
I14
tp1511
a(g553
g77
I27
tp1512
a(g77
g553
I27
tp1513
a(g553
g565
I34
tp1514
a(g565
g553
I34
tp1515
a(g122
g339
I37
tp1516
a(g339
g122
I37
tp1517
a(g122
g381
I38
tp1518
a(g381
g122
I38
tp1519
a(g122
g451
I28
tp1520
a(g451
g122
I28
tp1521
a(g122
g405
I32
tp1522
a(g405
g122
I32
tp1523
a(g122
g401
I29
tp1524
a(g401
g122
I29
tp1525
a(g122
g408
I34
tp1526
a(g408
g122
I34
tp1527
a(g122
g645
I33
tp1528
a(g645
g122
I33
tp1529
a(g122
g343
I39
tp1530
a(g343
g122
I39
tp1531
a(g122
g340
I38
tp1532
a(g340
g122
I38
tp1533
a(g122
g391
I39
tp1534
a(g391
g122
I39
tp1535
a(g122
g360
I19
tp1536
a(g360
g122
I19
tp1537
a(g122
g469
I8
tp1538
a(g469
g122
I8
tp1539
a(g122
g411
I37
tp1540
a(g411
g122
I37
tp1541
a(g122
g466
I6
tp1542
a(g466
g122
I6
tp1543
a(g122
g649
I37
tp1544
a(g649
g122
I37
tp1545
a(g122
g646
I27
tp1546
a(g646
g122
I27
tp1547
a(g122
g457
I24
tp1548
a(g457
g122
I24
tp1549
a(g122
g463
I4
tp1550
a(g463
g122
I4
tp1551
a(g122
g652
I38
tp1552
a(g652
g122
I38
tp1553
a(g122
g448
I30
tp1554
a(g448
g122
I30
tp1555
a(g122
g424
I27
tp1556
a(g424
g122
I27
tp1557
a(g122
g388
I39
tp1558
a(g388
g122
I39
tp1559
a(g122
g460
I21
tp1560
a(g460
g122
I21
tp1561
a(g122
g420
I37
tp1562
a(g420
g122
I37
tp1563
a(g394
g365
I11
tp1564
a(g365
g394
I11
tp1565
a(g394
g397
I8
tp1566
a(g397
g394
I8
tp1567
a(g394
g339
I15
tp1568
a(g339
g394
I15
tp1569
a(g394
g381
I26
tp1570
a(g381
g394
I26
tp1571
a(g394
g352
I1
tp1572
a(g352
g394
I1
tp1573
a(g394
g349
I2
tp1574
a(g349
g394
I2
tp1575
a(g394
g343
I13
tp1576
a(g343
g394
I13
tp1577
a(g394
g398
I11
tp1578
a(g398
g394
I11
tp1579
a(g394
g340
I15
tp1580
a(g340
g394
I15
tp1581
a(g394
g391
I13
tp1582
a(g391
g394
I13
tp1583
a(g394
g382
I31
tp1584
a(g382
g394
I31
tp1585
a(g394
g360
I33
tp1586
a(g360
g394
I33
tp1587
a(g394
g421
I31
tp1588
a(g421
g394
I31
tp1589
a(g394
g679
I37
tp1590
a(g679
g394
I37
tp1591
a(g394
g377
I8
tp1592
a(g377
g394
I8
tp1593
a(g394
g357
I7
tp1594
a(g357
g394
I7
tp1595
a(g394
g378
I11
tp1596
a(g378
g394
I11
tp1597
a(g394
g385
I22
tp1598
a(g385
g394
I22
tp1599
a(g394
g346
I1
tp1600
a(g346
g394
I1
tp1601
a(g394
g414
I32
tp1602
a(g414
g394
I32
tp1603
a(g394
g388
I13
tp1604
a(g388
g394
I13
tp1605
a(g394
g420
I24
tp1606
a(g420
g394
I24
tp1607
a(g330
g299
I39
tp1608
a(g299
g330
I39
tp1609
a(g330
g538
I35
tp1610
a(g538
g330
I35
tp1611
a(g330
g226
I38
tp1612
a(g226
g330
I38
tp1613
a(g330
g229
I35
tp1614
a(g229
g330
I35
tp1615
a(g330
g232
I29
tp1616
a(g232
g330
I29
tp1617
a(g330
g235
I24
tp1618
a(g235
g330
I24
tp1619
a(g330
g62
I18
tp1620
a(g62
g330
I18
tp1621
a(g330
g333
I11
tp1622
a(g333
g330
I11
tp1623
a(g330
g336
I18
tp1624
a(g336
g330
I18
tp1625
a(g330
g311
I30
tp1626
a(g311
g330
I30
tp1627
a(g330
g327
I13
tp1628
a(g327
g330
I13
tp1629
a(g330
g125
I37
tp1630
a(g125
g330
I37
tp1631
a(g330
g532
I25
tp1632
a(g532
g330
I25
tp1633
a(g330
g308
I15
tp1634
a(g308
g330
I15
tp1635
a(g330
g326
I6
tp1636
a(g326
g330
I6
tp1637
a(g330
g314
I35
tp1638
a(g314
g330
I35
tp1639
a(g330
g68
I24
tp1640
a(g68
g330
I24
tp1641
a(g330
g302
I20
tp1642
a(g302
g330
I20
tp1643
a(g330
g535
I16
tp1644
a(g535
g330
I16
tp1645
a(g408
g636
I11
tp1646
a(g636
g408
I11
tp1647
a(g408
g339
I34
tp1648
a(g339
g408
I34
tp1649
a(g408
g381
I18
tp1650
a(g381
g408
I18
tp1651
a(g408
g451
I23
tp1652
a(g451
g408
I23
tp1653
a(g408
g405
I2
tp1654
a(g405
g408
I2
tp1655
a(g408
g401
I5
tp1656
a(g401
g408
I5
tp1657
a(g408
g122
I34
tp1658
a(g122
g408
I34
tp1659
a(g408
g645
I21
tp1660
a(g645
g408
I21
tp1661
a(g408
g343
I35
tp1662
a(g343
g408
I35
tp1663
a(g408
g340
I38
tp1664
a(g340
g408
I38
tp1665
a(g408
g391
I35
tp1666
a(g391
g408
I35
tp1667
a(g408
g382
I15
tp1668
a(g382
g408
I15
tp1669
a(g408
g360
I27
tp1670
a(g360
g408
I27
tp1671
a(g408
g469
I37
tp1672
a(g469
g408
I37
tp1673
a(g408
g411
I4
tp1674
a(g411
g408
I4
tp1675
a(g408
g466
I39
tp1676
a(g466
g408
I39
tp1677
a(g408
g421
I15
tp1678
a(g421
g408
I15
tp1679
a(g408
g649
I22
tp1680
a(g649
g408
I22
tp1681
a(g408
g633
I11
tp1682
a(g633
g408
I11
tp1683
a(g408
g646
I21
tp1684
a(g646
g408
I21
tp1685
a(g408
g457
I19
tp1686
a(g457
g408
I19
tp1687
a(g408
g463
I30
tp1688
a(g463
g408
I30
tp1689
a(g408
g652
I23
tp1690
a(g652
g408
I23
tp1691
a(g408
g448
I31
tp1692
a(g448
g408
I31
tp1693
a(g408
g385
I22
tp1694
a(g385
g408
I22
tp1695
a(g408
g424
I7
tp1696
a(g424
g408
I7
tp1697
a(g408
g388
I34
tp1698
a(g388
g408
I34
tp1699
a(g408
g460
I19
tp1700
a(g460
g408
I19
tp1701
a(g408
g420
I20
tp1702
a(g420
g408
I20
tp1703
a(g284
g278
I11
tp1704
a(g278
g284
I11
tp1705
a(g284
g53
I18
tp1706
a(g53
g284
I18
tp1707
a(g284
g612
I39
tp1708
a(g612
g284
I39
tp1709
a(g284
g615
I39
tp1710
a(g615
g284
I39
tp1711
a(g284
g272
I38
tp1712
a(g272
g284
I38
tp1713
a(g284
g605
I38
tp1714
a(g605
g284
I38
tp1715
a(g284
g606
I39
tp1716
a(g606
g284
I39
tp1717
a(g284
g609
I38
tp1718
a(g609
g284
I38
tp1719
a(g284
g47
I25
tp1720
a(g47
g284
I25
tp1721
a(g284
g287
I31
tp1722
a(g287
g284
I31
tp1723
a(g284
g44
I37
tp1724
a(g44
g284
I37
tp1725
a(g284
g50
I21
tp1726
a(g50
g284
I21
tp1727
a(g284
g281
I2
tp1728
a(g281
g284
I2
tp1729
a(g284
g275
I34
tp1730
a(g275
g284
I34
tp1731
a(g480
g483
I13
tp1732
a(g483
g480
I13
tp1733
a(g480
g132
I28
tp1734
a(g132
g480
I28
tp1735
a(g480
g538
I17
tp1736
a(g538
g480
I17
tp1737
a(g480
g544
I26
tp1738
a(g544
g480
I26
tp1739
a(g480
g472
I34
tp1740
a(g472
g480
I34
tp1741
a(g480
g311
I26
tp1742
a(g311
g480
I26
tp1743
a(g480
g327
I39
tp1744
a(g327
g480
I39
tp1745
a(g480
g125
I25
tp1746
a(g125
g480
I25
tp1747
a(g480
g308
I38
tp1748
a(g308
g480
I38
tp1749
a(g480
g314
I23
tp1750
a(g314
g480
I23
tp1751
a(g480
g68
I38
tp1752
a(g68
g480
I38
tp1753
a(g480
g476
I5
tp1754
a(g476
g480
I5
tp1755
a(g480
g317
I35
tp1756
a(g317
g480
I35
tp1757
a(g480
g129
I26
tp1758
a(g129
g480
I26
tp1759
a(g480
g541
I9
tp1760
a(g541
g480
I9
tp1761
a(g323
g562
I36
tp1762
a(g562
g323
I36
tp1763
a(g323
g553
I10
tp1764
a(g553
g323
I10
tp1765
a(g323
g550
I38
tp1766
a(g550
g323
I38
tp1767
a(g323
g80
I9
tp1768
a(g80
g323
I9
tp1769
a(g323
g559
I26
tp1770
a(g559
g323
I26
tp1771
a(g323
g320
I30
tp1772
a(g320
g323
I30
tp1773
a(g323
g556
I18
tp1774
a(g556
g323
I18
tp1775
a(g323
g83
I36
tp1776
a(g83
g323
I36
tp1777
a(g323
g77
I19
tp1778
a(g77
g323
I19
tp1779
a(g323
g565
I38
tp1780
a(g565
g323
I38
tp1781
a(g89
g86
I3
tp1782
a(g86
g89
I3
tp1783
a(g89
g562
I31
tp1784
a(g562
g89
I31
tp1785
a(g89
g98
I16
tp1786
a(g98
g89
I16
tp1787
a(g89
g101
I24
tp1788
a(g101
g89
I24
tp1789
a(g89
g92
I4
tp1790
a(g92
g89
I4
tp1791
a(g89
g95
I8
tp1792
a(g95
g89
I8
tp1793
a(g89
g568
I32
tp1794
a(g568
g89
I32
tp1795
a(g89
g571
I35
tp1796
a(g571
g89
I35
tp1797
a(g89
g559
I34
tp1798
a(g559
g89
I34
tp1799
a(g89
g556
I39
tp1800
a(g556
g89
I39
tp1801
a(g89
g83
I12
tp1802
a(g83
g89
I12
tp1803
a(g89
g574
I38
tp1804
a(g574
g89
I38
tp1805
a(g89
g565
I32
tp1806
a(g565
g89
I32
tp1807
a(g592
g577
I33
tp1808
a(g577
g592
I33
tp1809
a(g592
g586
I21
tp1810
a(g586
g592
I21
tp1811
a(g592
g583
I22
tp1812
a(g583
g592
I22
tp1813
a(g592
g589
I11
tp1814
a(g589
g592
I11
tp1815
a(g592
g595
I16
tp1816
a(g595
g592
I16
tp1817
a(g592
g580
I26
tp1818
a(g580
g592
I26
tp1819
a(g92
g86
I7
tp1820
a(g86
g92
I7
tp1821
a(g92
g562
I35
tp1822
a(g562
g92
I35
tp1823
a(g92
g98
I11
tp1824
a(g98
g92
I11
tp1825
a(g92
g101
I20
tp1826
a(g101
g92
I20
tp1827
a(g92
g89
I4
tp1828
a(g89
g92
I4
tp1829
a(g92
g95
I4
tp1830
a(g95
g92
I4
tp1831
a(g92
g568
I36
tp1832
a(g568
g92
I36
tp1833
a(g92
g571
I38
tp1834
a(g571
g92
I38
tp1835
a(g92
g559
I39
tp1836
a(g559
g92
I39
tp1837
a(g92
g83
I16
tp1838
a(g83
g92
I16
tp1839
a(g92
g565
I35
tp1840
a(g565
g92
I35
tp1841
a(g645
g636
I18
tp1842
a(g636
g645
I18
tp1843
a(g645
g381
I39
tp1844
a(g381
g645
I39
tp1845
a(g645
g451
I6
tp1846
a(g451
g645
I6
tp1847
a(g645
g405
I18
tp1848
a(g405
g645
I18
tp1849
a(g645
g401
I17
tp1850
a(g401
g645
I17
tp1851
a(g645
g122
I33
tp1852
a(g122
g645
I33
tp1853
a(g645
g408
I21
tp1854
a(g408
g645
I21
tp1855
a(g645
g197
I30
tp1856
a(g197
g645
I30
tp1857
a(g645
g382
I36
tp1858
a(g382
g645
I36
tp1859
a(g645
g360
I38
tp1860
a(g360
g645
I38
tp1861
a(g645
g204
I38
tp1862
a(g204
g645
I38
tp1863
a(g645
g411
I26
tp1864
a(g411
g645
I26
tp1865
a(g645
g466
I39
tp1866
a(g466
g645
I39
tp1867
a(g645
g421
I37
tp1868
a(g421
g645
I37
tp1869
a(g645
g201
I35
tp1870
a(g201
g645
I35
tp1871
a(g645
g649
I3
tp1872
a(g649
g645
I3
tp1873
a(g645
g633
I23
tp1874
a(g633
g645
I23
tp1875
a(g645
g646
I6
tp1876
a(g646
g645
I6
tp1877
a(g645
g457
I9
tp1878
a(g457
g645
I9
tp1879
a(g645
g463
I29
tp1880
a(g463
g645
I29
tp1881
a(g645
g652
I5
tp1882
a(g652
g645
I5
tp1883
a(g645
g598
I25
tp1884
a(g598
g645
I25
tp1885
a(g645
g448
I12
tp1886
a(g448
g645
I12
tp1887
a(g645
g424
I17
tp1888
a(g424
g645
I17
tp1889
a(g645
g602
I32
tp1890
a(g602
g645
I32
tp1891
a(g645
g460
I12
tp1892
a(g460
g645
I12
tp1893
a(g645
g642
I21
tp1894
a(g642
g645
I21
tp1895
a(g586
g562
I39
tp1896
a(g562
g586
I39
tp1897
a(g586
g577
I12
tp1898
a(g577
g586
I12
tp1899
a(g586
g592
I21
tp1900
a(g592
g586
I21
tp1901
a(g586
g568
I33
tp1902
a(g568
g586
I33
tp1903
a(g586
g583
I1
tp1904
a(g583
g586
I1
tp1905
a(g586
g571
I27
tp1906
a(g571
g586
I27
tp1907
a(g586
g589
I9
tp1908
a(g589
g586
I9
tp1909
a(g586
g595
I38
tp1910
a(g595
g586
I38
tp1911
a(g586
g580
I5
tp1912
a(g580
g586
I5
tp1913
a(g586
g574
I22
tp1914
a(g574
g586
I22
tp1915
a(g586
g565
I37
tp1916
a(g565
g586
I37
tp1917
a(g11
g14
I15
tp1918
a(g14
g11
I15
tp1919
a(g11
g5
I32
tp1920
a(g5
g11
I32
tp1921
a(g11
g17
I27
tp1922
a(g17
g11
I27
tp1923
a(g11
g8
I19
tp1924
a(g8
g11
I19
tp1925
a(g251
g38
I10
tp1926
a(g38
g251
I10
tp1927
a(g251
g41
I30
tp1928
a(g41
g251
I30
tp1929
a(g251
g269
I35
tp1930
a(g269
g251
I35
tp1931
a(g251
g266
I28
tp1932
a(g266
g251
I28
tp1933
a(g251
g257
I13
tp1934
a(g257
g251
I13
tp1935
a(g251
g242
I25
tp1936
a(g242
g251
I25
tp1937
a(g251
g245
I10
tp1938
a(g245
g251
I10
tp1939
a(g251
g254
I2
tp1940
a(g254
g251
I2
tp1941
a(g251
g263
I23
tp1942
a(g263
g251
I23
tp1943
a(g251
g32
I24
tp1944
a(g32
g251
I24
tp1945
a(g251
g248
I6
tp1946
a(g248
g251
I6
tp1947
a(g251
g241
I19
tp1948
a(g241
g251
I19
tp1949
a(g251
g35
I20
tp1950
a(g35
g251
I20
tp1951
a(g251
g260
I17
tp1952
a(g260
g251
I17
tp1953
a(g266
g38
I24
tp1954
a(g38
g266
I24
tp1955
a(g266
g41
I10
tp1956
a(g41
g266
I10
tp1957
a(g266
g269
I7
tp1958
a(g269
g266
I7
tp1959
a(g266
g251
I28
tp1960
a(g251
g266
I28
tp1961
a(g266
g257
I14
tp1962
a(g257
g266
I14
tp1963
a(g266
g272
I24
tp1964
a(g272
g266
I24
tp1965
a(g266
g245
I38
tp1966
a(g245
g266
I38
tp1967
a(g266
g254
I25
tp1968
a(g254
g266
I25
tp1969
a(g266
g263
I5
tp1970
a(g263
g266
I5
tp1971
a(g266
g248
I33
tp1972
a(g248
g266
I33
tp1973
a(g266
g47
I39
tp1974
a(g47
g266
I39
tp1975
a(g266
g44
I27
tp1976
a(g44
g266
I27
tp1977
a(g266
g275
I28
tp1978
a(g275
g266
I28
tp1979
a(g266
g260
I10
tp1980
a(g260
g266
I10
tp1981
a(g5
g11
I32
tp1982
a(g11
g5
I32
tp1983
a(g5
g1
I8
tp1984
a(g1
g5
I8
tp1985
a(g5
g2
I17
tp1986
a(g2
g5
I17
tp1987
a(g5
g8
I12
tp1988
a(g8
g5
I12
tp1989
a(g343
g365
I24
tp1990
a(g365
g343
I24
tp1991
a(g343
g397
I21
tp1992
a(g397
g343
I21
tp1993
a(g343
g339
I1
tp1994
a(g339
g343
I1
tp1995
a(g343
g381
I19
tp1996
a(g381
g343
I19
tp1997
a(g343
g352
I15
tp1998
a(g352
g343
I15
tp1999
a(g343
g349
I12
tp2000
a(g349
g343
I12
tp2001
a(g343
g405
I36
tp2002
a(g405
g343
I36
tp2003
a(g343
g401
I36
tp2004
a(g401
g343
I36
tp2005
a(g343
g122
I39
tp2006
a(g122
g343
I39
tp2007
a(g343
g394
I13
tp2008
a(g394
g343
I13
tp2009
a(g343
g408
I35
tp2010
a(g408
g343
I35
tp2011
a(g343
g398
I24
tp2012
a(g398
g343
I24
tp2013
a(g343
g340
I4
tp2014
a(g340
g343
I4
tp2015
a(g343
g391
I0
tp2016
a(g391
g343
I0
tp2017
a(g343
g382
I25
tp2018
a(g382
g343
I25
tp2019
a(g343
g360
I20
tp2020
a(g360
g343
I20
tp2021
a(g343
g469
I34
tp2022
a(g469
g343
I34
tp2023
a(g343
g411
I33
tp2024
a(g411
g343
I33
tp2025
a(g343
g466
I38
tp2026
a(g466
g343
I38
tp2027
a(g343
g421
I25
tp2028
a(g421
g343
I25
tp2029
a(g343
g377
I21
tp2030
a(g377
g343
I21
tp2031
a(g343
g463
I38
tp2032
a(g463
g343
I38
tp2033
a(g343
g357
I20
tp2034
a(g357
g343
I20
tp2035
a(g343
g378
I24
tp2036
a(g378
g343
I24
tp2037
a(g343
g385
I18
tp2038
a(g385
g343
I18
tp2039
a(g343
g346
I12
tp2040
a(g346
g343
I12
tp2041
a(g343
g424
I36
tp2042
a(g424
g343
I36
tp2043
a(g343
g414
I38
tp2044
a(g414
g343
I38
tp2045
a(g343
g388
I1
tp2046
a(g388
g343
I1
tp2047
a(g343
g420
I16
tp2048
a(g420
g343
I16
tp2049
a(g398
g365
I3
tp2050
a(g365
g398
I3
tp2051
a(g398
g397
I2
tp2052
a(g397
g398
I2
tp2053
a(g398
g339
I26
tp2054
a(g339
g398
I26
tp2055
a(g398
g381
I36
tp2056
a(g381
g398
I36
tp2057
a(g398
g352
I9
tp2058
a(g352
g398
I9
tp2059
a(g398
g349
I12
tp2060
a(g349
g398
I12
tp2061
a(g398
g394
I11
tp2062
a(g394
g398
I11
tp2063
a(g398
g343
I24
tp2064
a(g343
g398
I24
tp2065
a(g398
g340
I26
tp2066
a(g340
g398
I26
tp2067
a(g398
g391
I24
tp2068
a(g391
g398
I24
tp2069
a(g398
g679
I31
tp2070
a(g679
g398
I31
tp2071
a(g398
g377
I3
tp2072
a(g377
g398
I3
tp2073
a(g398
g357
I4
tp2074
a(g357
g398
I4
tp2075
a(g398
g378
I2
tp2076
a(g378
g398
I2
tp2077
a(g398
g385
I32
tp2078
a(g385
g398
I32
tp2079
a(g398
g346
I12
tp2080
a(g346
g398
I12
tp2081
a(g398
g414
I32
tp2082
a(g414
g398
I32
tp2083
a(g398
g388
I24
tp2084
a(g388
g398
I24
tp2085
a(g398
g420
I34
tp2086
a(g420
g398
I34
tp2087
a(g197
g451
I31
tp2088
a(g451
g197
I31
tp2089
a(g197
g160
I23
tp2090
a(g160
g197
I23
tp2091
a(g197
g645
I30
tp2092
a(g645
g197
I30
tp2093
a(g197
g112
I13
tp2094
a(g112
g197
I13
tp2095
a(g197
g439
I32
tp2096
a(g439
g197
I32
tp2097
a(g197
g139
I22
tp2098
a(g139
g197
I22
tp2099
a(g197
g154
I17
tp2100
a(g154
g197
I17
tp2101
a(g197
g207
I12
tp2102
a(g207
g197
I12
tp2103
a(g197
g204
I8
tp2104
a(g204
g197
I8
tp2105
a(g197
g442
I31
tp2106
a(g442
g197
I31
tp2107
a(g197
g445
I27
tp2108
a(g445
g197
I27
tp2109
a(g197
g201
I5
tp2110
a(g201
g197
I5
tp2111
a(g197
g649
I29
tp2112
a(g649
g197
I29
tp2113
a(g197
g646
I33
tp2114
a(g646
g197
I33
tp2115
a(g197
g457
I37
tp2116
a(g457
g197
I37
tp2117
a(g197
g170
I39
tp2118
a(g170
g197
I39
tp2119
a(g197
g163
I20
tp2120
a(g163
g197
I20
tp2121
a(g197
g142
I18
tp2122
a(g142
g197
I18
tp2123
a(g197
g435
I33
tp2124
a(g435
g197
I33
tp2125
a(g197
g652
I28
tp2126
a(g652
g197
I28
tp2127
a(g197
g598
I8
tp2128
a(g598
g197
I8
tp2129
a(g197
g164
I17
tp2130
a(g164
g197
I17
tp2131
a(g197
g448
I24
tp2132
a(g448
g197
I24
tp2133
a(g197
g157
I22
tp2134
a(g157
g197
I22
tp2135
a(g197
g602
I10
tp2136
a(g602
g197
I10
tp2137
a(g197
g135
I25
tp2138
a(g135
g197
I25
tp2139
a(g197
g460
I39
tp2140
a(g460
g197
I39
tp2141
a(g197
g115
I14
tp2142
a(g115
g197
I14
tp2143
a(g197
g167
I24
tp2144
a(g167
g197
I24
tp2145
a(g197
g108
I12
tp2146
a(g108
g197
I12
tp2147
a(g197
g642
I10
tp2148
a(g642
g197
I10
tp2149
a(g197
g151
I14
tp2150
a(g151
g197
I14
tp2151
a(g340
g365
I26
tp2152
a(g365
g340
I26
tp2153
a(g340
g397
I23
tp2154
a(g397
g340
I23
tp2155
a(g340
g339
I4
tp2156
a(g339
g340
I4
tp2157
a(g340
g381
I23
tp2158
a(g381
g340
I23
tp2159
a(g340
g352
I17
tp2160
a(g352
g340
I17
tp2161
a(g340
g349
I14
tp2162
a(g349
g340
I14
tp2163
a(g340
g405
I39
tp2164
a(g405
g340
I39
tp2165
a(g340
g401
I39
tp2166
a(g401
g340
I39
tp2167
a(g340
g122
I38
tp2168
a(g122
g340
I38
tp2169
a(g340
g394
I15
tp2170
a(g394
g340
I15
tp2171
a(g340
g408
I38
tp2172
a(g408
g340
I38
tp2173
a(g340
g343
I4
tp2174
a(g343
g340
I4
tp2175
a(g340
g398
I26
tp2176
a(g398
g340
I26
tp2177
a(g340
g391
I5
tp2178
a(g391
g340
I5
tp2179
a(g340
g382
I29
tp2180
a(g382
g340
I29
tp2181
a(g340
g360
I19
tp2182
a(g360
g340
I19
tp2183
a(g340
g469
I32
tp2184
a(g469
g340
I32
tp2185
a(g340
g411
I37
tp2186
a(g411
g340
I37
tp2187
a(g340
g466
I36
tp2188
a(g466
g340
I36
tp2189
a(g340
g421
I29
tp2190
a(g421
g340
I29
tp2191
a(g340
g377
I24
tp2192
a(g377
g340
I24
tp2193
a(g340
g463
I37
tp2194
a(g463
g340
I37
tp2195
a(g340
g357
I22
tp2196
a(g357
g340
I22
tp2197
a(g340
g378
I26
tp2198
a(g378
g340
I26
tp2199
a(g340
g385
I22
tp2200
a(g385
g340
I22
tp2201
a(g340
g346
I14
tp2202
a(g346
g340
I14
tp2203
a(g340
g424
I38
tp2204
a(g424
g340
I38
tp2205
a(g340
g388
I6
tp2206
a(g388
g340
I6
tp2207
a(g340
g420
I20
tp2208
a(g420
g340
I20
tp2209
a(g391
g365
I24
tp2210
a(g365
g391
I24
tp2211
a(g391
g397
I22
tp2212
a(g397
g391
I22
tp2213
a(g391
g339
I1
tp2214
a(g339
g391
I1
tp2215
a(g391
g381
I18
tp2216
a(g381
g391
I18
tp2217
a(g391
g352
I15
tp2218
a(g352
g391
I15
tp2219
a(g391
g349
I12
tp2220
a(g349
g391
I12
tp2221
a(g391
g405
I36
tp2222
a(g405
g391
I36
tp2223
a(g391
g401
I36
tp2224
a(g401
g391
I36
tp2225
a(g391
g122
I39
tp2226
a(g122
g391
I39
tp2227
a(g391
g394
I13
tp2228
a(g394
g391
I13
tp2229
a(g391
g408
I35
tp2230
a(g408
g391
I35
tp2231
a(g391
g343
I0
tp2232
a(g343
g391
I0
tp2233
a(g391
g398
I24
tp2234
a(g398
g391
I24
tp2235
a(g391
g340
I5
tp2236
a(g340
g391
I5
tp2237
a(g391
g382
I25
tp2238
a(g382
g391
I25
tp2239
a(g391
g360
I20
tp2240
a(g360
g391
I20
tp2241
a(g391
g469
I34
tp2242
a(g469
g391
I34
tp2243
a(g391
g411
I33
tp2244
a(g411
g391
I33
tp2245
a(g391
g466
I38
tp2246
a(g466
g391
I38
tp2247
a(g391
g421
I25
tp2248
a(g421
g391
I25
tp2249
a(g391
g377
I21
tp2250
a(g377
g391
I21
tp2251
a(g391
g463
I38
tp2252
a(g463
g391
I38
tp2253
a(g391
g357
I20
tp2254
a(g357
g391
I20
tp2255
a(g391
g378
I24
tp2256
a(g378
g391
I24
tp2257
a(g391
g385
I18
tp2258
a(g385
g391
I18
tp2259
a(g391
g346
I12
tp2260
a(g346
g391
I12
tp2261
a(g391
g424
I36
tp2262
a(g424
g391
I36
tp2263
a(g391
g414
I38
tp2264
a(g414
g391
I38
tp2265
a(g391
g388
I1
tp2266
a(g388
g391
I1
tp2267
a(g391
g420
I16
tp2268
a(g420
g391
I16
tp2269
a(g95
g86
I11
tp2270
a(g86
g95
I11
tp2271
a(g95
g98
I7
tp2272
a(g98
g95
I7
tp2273
a(g95
g101
I16
tp2274
a(g101
g95
I16
tp2275
a(g95
g89
I8
tp2276
a(g89
g95
I8
tp2277
a(g95
g92
I4
tp2278
a(g92
g95
I4
tp2279
a(g95
g568
I39
tp2280
a(g568
g95
I39
tp2281
a(g95
g83
I20
tp2282
a(g83
g95
I20
tp2283
a(g95
g565
I39
tp2284
a(g565
g95
I39
tp2285
a(g53
g278
I28
tp2286
a(g278
g53
I28
tp2287
a(g53
g284
I18
tp2288
a(g284
g53
I18
tp2289
a(g53
g618
I33
tp2290
a(g618
g53
I33
tp2291
a(g53
g56
I26
tp2292
a(g56
g53
I26
tp2293
a(g53
g612
I31
tp2294
a(g612
g53
I31
tp2295
a(g53
g511
I38
tp2296
a(g511
g53
I38
tp2297
a(g53
g507
I35
tp2298
a(g507
g53
I35
tp2299
a(g53
g615
I32
tp2300
a(g615
g53
I32
tp2301
a(g53
g605
I27
tp2302
a(g605
g53
I27
tp2303
a(g53
g606
I26
tp2304
a(g606
g53
I26
tp2305
a(g53
g508
I32
tp2306
a(g508
g53
I32
tp2307
a(g53
g293
I37
tp2308
a(g293
g53
I37
tp2309
a(g53
g621
I37
tp2310
a(g621
g53
I37
tp2311
a(g53
g609
I30
tp2312
a(g609
g53
I30
tp2313
a(g53
g47
I39
tp2314
a(g47
g53
I39
tp2315
a(g53
g287
I19
tp2316
a(g287
g53
I19
tp2317
a(g53
g624
I38
tp2318
a(g624
g53
I38
tp2319
a(g53
g50
I34
tp2320
a(g50
g53
I34
tp2321
a(g53
g281
I20
tp2322
a(g281
g53
I20
tp2323
a(g132
g480
I28
tp2324
a(g480
g132
I28
tp2325
a(g132
g538
I25
tp2326
a(g538
g132
I25
tp2327
a(g132
g544
I30
tp2328
a(g544
g132
I30
tp2329
a(g132
g311
I19
tp2330
a(g311
g132
I19
tp2331
a(g132
g327
I39
tp2332
a(g327
g132
I39
tp2333
a(g29
g26
I23
tp2334
a(g26
g29
I23
tp2335
a(g514
g299
I35
tp2336
a(g299
g514
I35
tp2337
a(g514
g618
I17
tp2338
a(g618
g514
I17
tp2339
a(g514
g56
I25
tp2340
a(g56
g514
I25
tp2341
a(g514
g523
I18
tp2342
a(g523
g514
I18
tp2343
a(g514
g517
I2
tp2344
a(g517
g514
I2
tp2345
a(g514
g612
I17
tp2346
a(g612
g514
I17
tp2347
a(g514
g511
I7
tp2348
a(g511
g514
I7
tp2349
a(g514
g507
I11
tp2350
a(g507
g514
I11
tp2351
a(g514
g59
I28
tp2352
a(g59
g514
I28
tp2353
a(g514
g615
I17
tp2354
a(g615
g514
I17
tp2355
a(g514
g605
I16
tp2356
a(g605
g514
I16
tp2357
a(g514
g296
I12
tp2358
a(g296
g514
I12
tp2359
a(g514
g606
I18
tp2360
a(g606
g514
I18
tp2361
a(g514
g508
I14
tp2362
a(g508
g514
I14
tp2363
a(g514
g627
I20
tp2364
a(g627
g514
I20
tp2365
a(g514
g293
I12
tp2366
a(g293
g514
I12
tp2367
a(g514
g526
I23
tp2368
a(g526
g514
I23
tp2369
a(g514
g621
I16
tp2370
a(g621
g514
I16
tp2371
a(g514
g609
I16
tp2372
a(g609
g514
I16
tp2373
a(g514
g287
I24
tp2374
a(g287
g514
I24
tp2375
a(g514
g624
I17
tp2376
a(g624
g514
I17
tp2377
a(g514
g414
I38
tp2378
a(g414
g514
I38
tp2379
a(g514
g529
I29
tp2380
a(g529
g514
I29
tp2381
a(g514
g520
I5
tp2382
a(g520
g514
I5
tp2383
a(g618
g53
I33
tp2384
a(g53
g618
I33
tp2385
a(g618
g514
I17
tp2386
a(g514
g618
I17
tp2387
a(g618
g56
I26
tp2388
a(g56
g618
I26
tp2389
a(g618
g523
I36
tp2390
a(g523
g618
I36
tp2391
a(g618
g517
I19
tp2392
a(g517
g618
I19
tp2393
a(g618
g612
I2
tp2394
a(g612
g618
I2
tp2395
a(g618
g511
I9
tp2396
a(g511
g618
I9
tp2397
a(g618
g507
I6
tp2398
a(g507
g618
I6
tp2399
a(g618
g615
I1
tp2400
a(g615
g618
I1
tp2401
a(g382
g365
I37
tp2402
a(g365
g382
I37
tp2403
a(g382
g397
I38
tp2404
a(g397
g382
I38
tp2405
a(g382
g636
I23
tp2406
a(g636
g382
I23
tp2407
a(g382
g339
I25
tp2408
a(g339
g382
I25
tp2409
a(g382
g381
I6
tp2410
a(g381
g382
I6
tp2411
a(g382
g352
I32
tp2412
a(g352
g382
I32
tp2413
a(g382
g349
I32
tp2414
a(g349
g382
I32
tp2415
a(g382
g451
I38
tp2416
a(g451
g382
I38
tp2417
a(g382
g405
I18
tp2418
a(g405
g382
I18
tp2419
a(g382
g401
I19
tp2420
a(g401
g382
I19
tp2421
a(g382
g394
I31
tp2422
a(g394
g382
I31
tp2423
a(g382
g408
I15
tp2424
a(g408
g382
I15
tp2425
a(g382
g645
I36
tp2426
a(g645
g382
I36
tp2427
a(g382
g343
I25
tp2428
a(g343
g382
I25
tp2429
a(g382
g340
I29
tp2430
a(g340
g382
I29
tp2431
a(g382
g391
I25
tp2432
a(g391
g382
I25
tp2433
a(g382
g360
I27
tp2434
a(g360
g382
I27
tp2435
a(g382
g411
I11
tp2436
a(g411
g382
I11
tp2437
a(g382
g421
I0
tp2438
a(g421
g382
I0
tp2439
a(g382
g649
I38
tp2440
a(g649
g382
I38
tp2441
a(g382
g633
I20
tp2442
a(g633
g382
I20
tp2443
a(g382
g646
I35
tp2444
a(g646
g382
I35
tp2445
a(g382
g457
I33
tp2446
a(g457
g382
I33
tp2447
a(g382
g377
I36
tp2448
a(g377
g382
I36
tp2449
a(g382
g463
I38
tp2450
a(g463
g382
I38
tp2451
a(g382
g652
I38
tp2452
a(g652
g382
I38
tp2453
a(g382
g357
I35
tp2454
a(g357
g382
I35
tp2455
a(g382
g378
I38
tp2456
a(g378
g382
I38
tp2457
a(g382
g630
I32
tp2458
a(g630
g382
I32
tp2459
a(g382
g385
I8
tp2460
a(g385
g382
I8
tp2461
a(g382
g346
I30
tp2462
a(g346
g382
I30
tp2463
a(g382
g424
I21
tp2464
a(g424
g382
I21
tp2465
a(g382
g414
I30
tp2466
a(g414
g382
I30
tp2467
a(g382
g388
I23
tp2468
a(g388
g382
I23
tp2469
a(g382
g460
I33
tp2470
a(g460
g382
I33
tp2471
a(g382
g420
I9
tp2472
a(g420
g382
I9
tp2473
a(g132
g125
I11
tp2474
a(g125
g132
I11
tp2475
a(g132
g308
I33
tp2476
a(g308
g132
I33
tp2477
a(g132
g314
I15
tp2478
a(g314
g132
I15
tp2479
a(g132
g74
I30
tp2480
a(g74
g132
I30
tp2481
a(g132
g68
I23
tp2482
a(g68
g132
I23
tp2483
a(g132
g476
I23
tp2484
a(g476
g132
I23
tp2485
a(g132
g317
I30
tp2486
a(g317
g132
I30
tp2487
a(g132
g129
I5
tp2488
a(g129
g132
I5
tp2489
a(g132
g541
I19
tp2490
a(g541
g132
I19
tp2491
a(g618
g605
I9
tp2492
a(g605
g618
I9
tp2493
a(g618
g296
I24
tp2494
a(g296
g618
I24
tp2495
a(g618
g606
I15
tp2496
a(g606
g618
I15
tp2497
a(g618
g508
I3
tp2498
a(g508
g618
I3
tp2499
a(g618
g627
I10
tp2500
a(g627
g618
I10
tp2501
a(g618
g293
I21
tp2502
a(g293
g618
I21
tp2503
a(g618
g621
I3
tp2504
a(g621
g618
I3
tp2505
a(g618
g609
I4
tp2506
a(g609
g618
I4
tp2507
a(g618
g287
I16
tp2508
a(g287
g618
I16
tp2509
a(g618
g630
I32
tp2510
a(g630
g618
I32
tp2511
a(g618
g624
I5
tp2512
a(g624
g618
I5
tp2513
a(g618
g414
I34
tp2514
a(g414
g618
I34
tp2515
a(g618
g520
I22
tp2516
a(g520
g618
I22
tp2517
a(g538
g483
I23
tp2518
a(g483
g538
I23
tp2519
a(g538
g330
I35
tp2520
a(g330
g538
I35
tp2521
a(g538
g480
I17
tp2522
a(g480
g538
I17
tp2523
a(g538
g132
I25
tp2524
a(g132
g538
I25
tp2525
a(g538
g544
I39
tp2526
a(g544
g538
I39
tp2527
a(g538
g311
I10
tp2528
a(g311
g538
I10
tp2529
a(g538
g327
I22
tp2530
a(g327
g538
I22
tp2531
a(g538
g125
I15
tp2532
a(g125
g538
I15
tp2533
a(g538
g308
I20
tp2534
a(g308
g538
I20
tp2535
a(g538
g326
I28
tp2536
a(g326
g538
I28
tp2537
a(g538
g314
I11
tp2538
a(g314
g538
I11
tp2539
a(g538
g68
I22
tp2540
a(g68
g538
I22
tp2541
a(g538
g476
I16
tp2542
a(g476
g538
I16
tp2543
a(g538
g129
I20
tp2544
a(g129
g538
I20
tp2545
a(g538
g541
I15
tp2546
a(g541
g538
I15
tp2547
a(g568
g86
I31
tp2548
a(g86
g568
I31
tp2549
a(g568
g562
I6
tp2550
a(g562
g568
I6
tp2551
a(g568
g577
I21
tp2552
a(g577
g568
I21
tp2553
a(g568
g553
I38
tp2554
a(g553
g568
I38
tp2555
a(g568
g89
I32
tp2556
a(g89
g568
I32
tp2557
a(g568
g92
I36
tp2558
a(g92
g568
I36
tp2559
a(g568
g586
I33
tp2560
a(g586
g568
I33
tp2561
a(g568
g95
I39
tp2562
a(g95
g568
I39
tp2563
a(g568
g583
I32
tp2564
a(g583
g568
I32
tp2565
a(g568
g571
I6
tp2566
a(g571
g568
I6
tp2567
a(g568
g559
I16
tp2568
a(g559
g568
I16
tp2569
a(g568
g556
I24
tp2570
a(g556
g568
I24
tp2571
a(g568
g580
I28
tp2572
a(g580
g568
I28
tp2573
a(g568
g83
I30
tp2574
a(g83
g568
I30
tp2575
a(g568
g574
I11
tp2576
a(g574
g568
I11
tp2577
a(g568
g565
I4
tp2578
a(g565
g568
I4
tp2579
a(g229
g299
I37
tp2580
a(g299
g229
I37
tp2581
a(g229
g330
I35
tp2582
a(g330
g229
I35
tp2583
a(g229
g226
I3
tp2584
a(g226
g229
I3
tp2585
a(g229
g232
I8
tp2586
a(g232
g229
I8
tp2587
a(g229
g235
I25
tp2588
a(g235
g229
I25
tp2589
a(g229
g62
I21
tp2590
a(g62
g229
I21
tp2591
a(g229
g214
I13
tp2592
a(g214
g229
I13
tp2593
a(g229
g217
I11
tp2594
a(g217
g229
I11
tp2595
a(g229
g59
I39
tp2596
a(g59
g229
I39
tp2597
a(g229
g333
I23
tp2598
a(g333
g229
I23
tp2599
a(g229
g336
I17
tp2600
a(g336
g229
I17
tp2601
a(g226
g330
I38
tp2602
a(g330
g226
I38
tp2603
a(g226
g229
I3
tp2604
a(g229
g226
I3
tp2605
a(g226
g232
I12
tp2606
a(g232
g226
I12
tp2607
a(g226
g235
I29
tp2608
a(g235
g226
I29
tp2609
a(g226
g62
I25
tp2610
a(g62
g226
I25
tp2611
a(g226
g214
I9
tp2612
a(g214
g226
I9
tp2613
a(g226
g217
I7
tp2614
a(g217
g226
I7
tp2615
a(g226
g333
I27
tp2616
a(g333
g226
I27
tp2617
a(g226
g336
I21
tp2618
a(g336
g226
I21
tp2619
a(g226
g211
I14
tp2620
a(g211
g226
I14
tp2621
a(g226
g220
I5
tp2622
a(g220
g226
I5
tp2623
a(g226
g302
I36
tp2624
a(g302
g226
I36
tp2625
a(g226
g223
I2
tp2626
a(g223
g226
I2
tp2627
a(g226
g210
I11
tp2628
a(g210
g226
I11
tp2629
a(g232
g299
I29
tp2630
a(g299
g232
I29
tp2631
a(g232
g330
I29
tp2632
a(g330
g232
I29
tp2633
a(g232
g226
I12
tp2634
a(g226
g232
I12
tp2635
a(g232
g229
I8
tp2636
a(g229
g232
I8
tp2637
a(g232
g235
I17
tp2638
a(g235
g232
I17
tp2639
a(g232
g62
I13
tp2640
a(g62
g232
I13
tp2641
a(g232
g214
I21
tp2642
a(g214
g232
I21
tp2643
a(g232
g217
I19
tp2644
a(g217
g232
I19
tp2645
a(g232
g59
I34
tp2646
a(g59
g232
I34
tp2647
a(g232
g333
I17
tp2648
a(g333
g232
I17
tp2649
a(g232
g336
I10
tp2650
a(g336
g232
I10
tp2651
a(g232
g211
I24
tp2652
a(g211
g232
I24
tp2653
a(g232
g532
I33
tp2654
a(g532
g232
I33
tp2655
a(g232
g326
I35
tp2656
a(g326
g232
I35
tp2657
a(g232
g220
I17
tp2658
a(g220
g232
I17
tp2659
a(g232
g302
I24
tp2660
a(g302
g232
I24
tp2661
a(g232
g223
I15
tp2662
a(g223
g232
I15
tp2663
a(g232
g210
I22
tp2664
a(g210
g232
I22
tp2665
a(g232
g535
I35
tp2666
a(g535
g232
I35
tp2667
a(g112
g160
I24
tp2668
a(g160
g112
I24
tp2669
a(g112
g197
I13
tp2670
a(g197
g112
I13
tp2671
a(g112
g439
I21
tp2672
a(g439
g112
I21
tp2673
a(g112
g139
I10
tp2674
a(g139
g112
I10
tp2675
a(g112
g154
I20
tp2676
a(g154
g112
I20
tp2677
a(g112
g207
I11
tp2678
a(g207
g112
I11
tp2679
a(g112
g204
I11
tp2680
a(g204
g112
I11
tp2681
a(g112
g442
I21
tp2682
a(g442
g112
I21
tp2683
a(g112
g445
I18
tp2684
a(g445
g112
I18
tp2685
a(g112
g201
I11
tp2686
a(g201
g112
I11
tp2687
a(g112
g170
I27
tp2688
a(g170
g112
I27
tp2689
a(g112
g163
I10
tp2690
a(g163
g112
I10
tp2691
a(g112
g142
I5
tp2692
a(g142
g112
I5
tp2693
a(g112
g435
I22
tp2694
a(g435
g112
I22
tp2695
a(g112
g598
I17
tp2696
a(g598
g112
I17
tp2697
a(g112
g164
I6
tp2698
a(g164
g112
I6
tp2699
a(g112
g448
I34
tp2700
a(g448
g112
I34
tp2701
a(g112
g157
I25
tp2702
a(g157
g112
I25
tp2703
a(g112
g602
I11
tp2704
a(g602
g112
I11
tp2705
a(g112
g135
I15
tp2706
a(g135
g112
I15
tp2707
a(g112
g115
I3
tp2708
a(g115
g112
I3
tp2709
a(g112
g167
I13
tp2710
a(g167
g112
I13
tp2711
a(g112
g108
I2
tp2712
a(g108
g112
I2
tp2713
a(g112
g642
I21
tp2714
a(g642
g112
I21
tp2715
a(g112
g151
I16
tp2716
a(g151
g112
I16
tp2717
a(g229
g211
I17
tp2718
a(g211
g229
I17
tp2719
a(g229
g220
I9
tp2720
a(g220
g229
I9
tp2721
a(g229
g302
I32
tp2722
a(g302
g229
I32
tp2723
a(g229
g223
I6
tp2724
a(g223
g229
I6
tp2725
a(g229
g210
I14
tp2726
a(g210
g229
I14
tp2727
a(g439
g197
I32
tp2728
a(g197
g439
I32
tp2729
a(g439
g112
I21
tp2730
a(g112
g439
I21
tp2731
a(g439
g139
I11
tp2732
a(g139
g439
I11
tp2733
a(g439
g207
I33
tp2734
a(g207
g439
I33
tp2735
a(g439
g204
I33
tp2736
a(g204
g439
I33
tp2737
a(g439
g173
I36
tp2738
a(g173
g439
I36
tp2739
a(g439
g442
I0
tp2740
a(g442
g439
I0
tp2741
a(g439
g445
I5
tp2742
a(g445
g439
I5
tp2743
a(g439
g428
I39
tp2744
a(g428
g439
I39
tp2745
a(g439
g201
I33
tp2746
a(g201
g439
I33
tp2747
a(g439
g170
I28
tp2748
a(g170
g439
I28
tp2749
a(g439
g163
I26
tp2750
a(g163
g439
I26
tp2751
a(g439
g142
I20
tp2752
a(g142
g439
I20
tp2753
a(g439
g435
I0
tp2754
a(g435
g439
I0
tp2755
a(g439
g598
I31
tp2756
a(g598
g439
I31
tp2757
a(g439
g164
I24
tp2758
a(g164
g439
I24
tp2759
a(g439
g432
I30
tp2760
a(g432
g439
I30
tp2761
a(g439
g436
I25
tp2762
a(g436
g439
I25
tp2763
a(g439
g602
I23
tp2764
a(g602
g439
I23
tp2765
a(g439
g135
I7
tp2766
a(g135
g439
I7
tp2767
a(g439
g115
I22
tp2768
a(g115
g439
I22
tp2769
a(g439
g167
I26
tp2770
a(g167
g439
I26
tp2771
a(g439
g108
I21
tp2772
a(g108
g439
I21
tp2773
a(g439
g642
I34
tp2774
a(g642
g439
I34
tp2775
a(g439
g151
I37
tp2776
a(g151
g439
I37
tp2777
a(g139
g160
I34
tp2778
a(g160
g139
I34
tp2779
a(g139
g197
I22
tp2780
a(g197
g139
I22
tp2781
a(g139
g112
I10
tp2782
a(g112
g139
I10
tp2783
a(g139
g439
I11
tp2784
a(g439
g139
I11
tp2785
a(g139
g154
I30
tp2786
a(g154
g139
I30
tp2787
a(g139
g207
I22
tp2788
a(g207
g139
I22
tp2789
a(g139
g204
I22
tp2790
a(g204
g139
I22
tp2791
a(g139
g173
I36
tp2792
a(g173
g139
I36
tp2793
a(g139
g442
I10
tp2794
a(g442
g139
I10
tp2795
a(g139
g445
I9
tp2796
a(g445
g139
I9
tp2797
a(g139
g201
I22
tp2798
a(g201
g139
I22
tp2799
a(g139
g170
I25
tp2800
a(g170
g139
I25
tp2801
a(g139
g163
I15
tp2802
a(g163
g139
I15
tp2803
a(g139
g142
I10
tp2804
a(g142
g139
I10
tp2805
a(g139
g435
I12
tp2806
a(g435
g139
I12
tp2807
a(g139
g598
I23
tp2808
a(g598
g139
I23
tp2809
a(g139
g164
I13
tp2810
a(g164
g139
I13
tp2811
a(g139
g448
I37
tp2812
a(g448
g139
I37
tp2813
a(g139
g432
I39
tp2814
a(g432
g139
I39
tp2815
a(g139
g157
I35
tp2816
a(g157
g139
I35
tp2817
a(g139
g436
I35
tp2818
a(g436
g139
I35
tp2819
a(g139
g602
I15
tp2820
a(g602
g139
I15
tp2821
a(g139
g135
I4
tp2822
a(g135
g139
I4
tp2823
a(g139
g115
I11
tp2824
a(g115
g139
I11
tp2825
a(g139
g167
I17
tp2826
a(g167
g139
I17
tp2827
a(g139
g108
I10
tp2828
a(g108
g139
I10
tp2829
a(g139
g642
I26
tp2830
a(g642
g139
I26
tp2831
a(g139
g151
I26
tp2832
a(g151
g139
I26
tp2833
a(g235
g299
I16
tp2834
a(g299
g235
I16
tp2835
a(g235
g330
I24
tp2836
a(g330
g235
I24
tp2837
a(g235
g226
I29
tp2838
a(g226
g235
I29
tp2839
a(g235
g229
I25
tp2840
a(g229
g235
I25
tp2841
a(g235
g232
I17
tp2842
a(g232
g235
I17
tp2843
a(g235
g523
I33
tp2844
a(g523
g235
I33
tp2845
a(g235
g62
I8
tp2846
a(g62
g235
I8
tp2847
a(g235
g214
I38
tp2848
a(g214
g235
I38
tp2849
a(g235
g217
I37
tp2850
a(g217
g235
I37
tp2851
a(g235
g59
I30
tp2852
a(g59
g235
I30
tp2853
a(g235
g333
I15
tp2854
a(g333
g235
I15
tp2855
a(g235
g336
I13
tp2856
a(g336
g235
I13
tp2857
a(g235
g327
I36
tp2858
a(g327
g235
I36
tp2859
a(g235
g526
I30
tp2860
a(g526
g235
I30
tp2861
a(g235
g238
I33
tp2862
a(g238
g235
I33
tp2863
a(g235
g532
I16
tp2864
a(g532
g235
I16
tp2865
a(g235
g308
I39
tp2866
a(g308
g235
I39
tp2867
a(g235
g326
I30
tp2868
a(g326
g235
I30
tp2869
a(g235
g220
I34
tp2870
a(g220
g235
I34
tp2871
a(g235
g302
I7
tp2872
a(g302
g235
I7
tp2873
a(g235
g223
I32
tp2874
a(g223
g235
I32
tp2875
a(g235
g210
I39
tp2876
a(g210
g235
I39
tp2877
a(g235
g529
I25
tp2878
a(g529
g235
I25
tp2879
a(g235
g535
I21
tp2880
a(g535
g235
I21
tp2881
a(g56
g53
I26
tp2882
a(g53
g56
I26
tp2883
a(g56
g514
I25
tp2884
a(g514
g56
I25
tp2885
a(g56
g618
I26
tp2886
a(g618
g56
I26
tp2887
a(g56
g523
I36
tp2888
a(g523
g56
I36
tp2889
a(g56
g517
I25
tp2890
a(g517
g56
I25
tp2891
a(g56
g612
I23
tp2892
a(g612
g56
I23
tp2893
a(g56
g511
I23
tp2894
a(g511
g56
I23
tp2895
a(g56
g507
I22
tp2896
a(g507
g56
I22
tp2897
a(g56
g59
I28
tp2898
a(g59
g56
I28
tp2899
a(g56
g615
I25
tp2900
a(g615
g56
I25
tp2901
a(g56
g605
I16
tp2902
a(g605
g56
I16
tp2903
a(g56
g296
I17
tp2904
a(g296
g56
I17
tp2905
a(g56
g606
I10
tp2906
a(g606
g56
I10
tp2907
a(g56
g508
I22
tp2908
a(g508
g56
I22
tp2909
a(g56
g627
I36
tp2910
a(g627
g56
I36
tp2911
a(g56
g293
I13
tp2912
a(g293
g56
I13
tp2913
a(g56
g621
I29
tp2914
a(g621
g56
I29
tp2915
a(g56
g609
I21
tp2916
a(g609
g56
I21
tp2917
a(g56
g287
I14
tp2918
a(g287
g56
I14
tp2919
a(g56
g624
I31
tp2920
a(g624
g56
I31
tp2921
a(g56
g520
I26
tp2922
a(g520
g56
I26
tp2923
a(g154
g160
I5
tp2924
a(g160
g154
I5
tp2925
a(g154
g197
I17
tp2926
a(g197
g154
I17
tp2927
a(g154
g112
I20
tp2928
a(g112
g154
I20
tp2929
a(g154
g139
I30
tp2930
a(g139
g154
I30
tp2931
a(g154
g207
I8
tp2932
a(g207
g154
I8
tp2933
a(g154
g204
I10
tp2934
a(g204
g154
I10
tp2935
a(g154
g445
I38
tp2936
a(g445
g154
I38
tp2937
a(g154
g201
I12
tp2938
a(g201
g154
I12
tp2939
a(g154
g170
I35
tp2940
a(g170
g154
I35
tp2941
a(g154
g163
I18
tp2942
a(g163
g154
I18
tp2943
a(g154
g142
I21
tp2944
a(g142
g154
I21
tp2945
a(g154
g598
I26
tp2946
a(g598
g154
I26
tp2947
a(g154
g164
I17
tp2948
a(g164
g154
I17
tp2949
a(g154
g157
I5
tp2950
a(g157
g154
I5
tp2951
a(g154
g602
I26
tp2952
a(g602
g154
I26
tp2953
a(g154
g135
I35
tp2954
a(g135
g154
I35
tp2955
a(g154
g115
I18
tp2956
a(g115
g154
I18
tp2957
a(g154
g167
I20
tp2958
a(g167
g154
I20
tp2959
a(g154
g108
I21
tp2960
a(g108
g154
I21
tp2961
a(g154
g642
I28
tp2962
a(g642
g154
I28
tp2963
a(g154
g151
I3
tp2964
a(g151
g154
I3
tp2965
a(g360
g636
I38
tp2966
a(g636
g360
I38
tp2967
a(g360
g339
I18
tp2968
a(g339
g360
I18
tp2969
a(g360
g381
I22
tp2970
a(g381
g360
I22
tp2971
a(g360
g352
I35
tp2972
a(g352
g360
I35
tp2973
a(g360
g349
I32
tp2974
a(g349
g360
I32
tp2975
a(g360
g451
I36
tp2976
a(g451
g360
I36
tp2977
a(g360
g405
I27
tp2978
a(g405
g360
I27
tp2979
a(g360
g401
I25
tp2980
a(g401
g360
I25
tp2981
a(g360
g122
I19
tp2982
a(g122
g360
I19
tp2983
a(g360
g394
I33
tp2984
a(g394
g360
I33
tp2985
a(g360
g408
I27
tp2986
a(g408
g360
I27
tp2987
a(g360
g645
I38
tp2988
a(g645
g360
I38
tp2989
a(g360
g343
I20
tp2990
a(g343
g360
I20
tp2991
a(g360
g340
I19
tp2992
a(g340
g360
I19
tp2993
a(g360
g391
I20
tp2994
a(g391
g360
I20
tp2995
a(g360
g382
I27
tp2996
a(g382
g360
I27
tp2997
a(g360
g469
I15
tp2998
a(g469
g360
I15
tp2999
a(g360
g411
I28
tp3000
a(g411
g360
I28
tp3001
a(g360
g466
I19
tp3002
a(g466
g360
I19
tp3003
a(g360
g421
I27
tp3004
a(g421
g360
I27
tp3005
a(g360
g633
I38
tp3006
a(g633
g360
I38
tp3007
a(g360
g646
I33
tp3008
a(g646
g360
I33
tp3009
a(g360
g457
I30
tp3010
a(g457
g360
I30
tp3011
a(g360
g463
I18
tp3012
a(g463
g360
I18
tp3013
a(g360
g385
I25
tp3014
a(g385
g360
I25
tp3015
a(g360
g346
I32
tp3016
a(g346
g360
I32
tp3017
a(g360
g424
I24
tp3018
a(g424
g360
I24
tp3019
a(g360
g388
I20
tp3020
a(g388
g360
I20
tp3021
a(g360
g460
I27
tp3022
a(g460
g360
I27
tp3023
a(g360
g420
I20
tp3024
a(g420
g360
I20
tp3025
a(g257
g38
I10
tp3026
a(g38
g257
I10
tp3027
a(g257
g41
I17
tp3028
a(g41
g257
I17
tp3029
a(g257
g269
I22
tp3030
a(g269
g257
I22
tp3031
a(g257
g251
I13
tp3032
a(g251
g257
I13
tp3033
a(g257
g266
I14
tp3034
a(g266
g257
I14
tp3035
a(g257
g242
I38
tp3036
a(g242
g257
I38
tp3037
a(g257
g272
I38
tp3038
a(g272
g257
I38
tp3039
a(g257
g245
I23
tp3040
a(g245
g257
I23
tp3041
a(g257
g254
I11
tp3042
a(g254
g257
I11
tp3043
a(g257
g263
I9
tp3044
a(g263
g257
I9
tp3045
a(g257
g32
I37
tp3046
a(g32
g257
I37
tp3047
a(g257
g248
I19
tp3048
a(g248
g257
I19
tp3049
a(g257
g241
I33
tp3050
a(g241
g257
I33
tp3051
a(g257
g35
I33
tp3052
a(g35
g257
I33
tp3053
a(g257
g260
I4
tp3054
a(g260
g257
I4
tp3055
a(g523
g299
I17
tp3056
a(g299
g523
I17
tp3057
a(g523
g514
I18
tp3058
a(g514
g523
I18
tp3059
a(g523
g618
I36
tp3060
a(g618
g523
I36
tp3061
a(g523
g235
I33
tp3062
a(g235
g523
I33
tp3063
a(g523
g56
I36
tp3064
a(g56
g523
I36
tp3065
a(g523
g517
I16
tp3066
a(g517
g523
I16
tp3067
a(g523
g612
I35
tp3068
a(g612
g523
I35
tp3069
a(g523
g511
I26
tp3070
a(g511
g523
I26
tp3071
a(g523
g507
I30
tp3072
a(g507
g523
I30
tp3073
a(g523
g59
I21
tp3074
a(g59
g523
I21
tp3075
a(g523
g615
I36
tp3076
a(g615
g523
I36
tp3077
a(g523
g605
I34
tp3078
a(g605
g523
I34
tp3079
a(g523
g296
I19
tp3080
a(g296
g523
I19
tp3081
a(g523
g606
I34
tp3082
a(g606
g523
I34
tp3083
a(g523
g508
I33
tp3084
a(g508
g523
I33
tp3085
a(g523
g627
I37
tp3086
a(g627
g523
I37
tp3087
a(g523
g293
I23
tp3088
a(g293
g523
I23
tp3089
a(g523
g526
I4
tp3090
a(g526
g523
I4
tp3091
a(g523
g621
I35
tp3092
a(g621
g523
I35
tp3093
a(g523
g609
I35
tp3094
a(g609
g523
I35
tp3095
a(g523
g238
I30
tp3096
a(g238
g523
I30
tp3097
a(g523
g532
I30
tp3098
a(g532
g523
I30
tp3099
a(g523
g624
I35
tp3100
a(g624
g523
I35
tp3101
a(g523
g302
I34
tp3102
a(g302
g523
I34
tp3103
a(g523
g529
I10
tp3104
a(g529
g523
I10
tp3105
a(g523
g520
I14
tp3106
a(g520
g523
I14
tp3107
a(g207
g160
I12
tp3108
a(g160
g207
I12
tp3109
a(g207
g197
I12
tp3110
a(g197
g207
I12
tp3111
a(g207
g112
I11
tp3112
a(g112
g207
I11
tp3113
a(g207
g439
I33
tp3114
a(g439
g207
I33
tp3115
a(g207
g139
I22
tp3116
a(g139
g207
I22
tp3117
a(g207
g154
I8
tp3118
a(g154
g207
I8
tp3119
a(g207
g204
I4
tp3120
a(g204
g207
I4
tp3121
a(g207
g442
I32
tp3122
a(g442
g207
I32
tp3123
a(g207
g445
I30
tp3124
a(g445
g207
I30
tp3125
a(g207
g201
I7
tp3126
a(g201
g207
I7
tp3127
a(g207
g170
I30
tp3128
a(g170
g207
I30
tp3129
a(g207
g163
I11
tp3130
a(g163
g207
I11
tp3131
a(g207
g142
I13
tp3132
a(g142
g207
I13
tp3133
a(g207
g435
I34
tp3134
a(g435
g207
I34
tp3135
a(g207
g598
I21
tp3136
a(g598
g207
I21
tp3137
a(g207
g164
I9
tp3138
a(g164
g207
I9
tp3139
a(g207
g448
I37
tp3140
a(g448
g207
I37
tp3141
a(g207
g157
I13
tp3142
a(g157
g207
I13
tp3143
a(g207
g602
I19
tp3144
a(g602
g207
I19
tp3145
a(g207
g135
I26
tp3146
a(g135
g207
I26
tp3147
a(g207
g115
I10
tp3148
a(g115
g207
I10
tp3149
a(g207
g167
I14
tp3150
a(g167
g207
I14
tp3151
a(g207
g108
I13
tp3152
a(g108
g207
I13
tp3153
a(g207
g642
I23
tp3154
a(g642
g207
I23
tp3155
a(g207
g151
I4
tp3156
a(g151
g207
I4
tp3157
a(g547
g544
I20
tp3158
a(g544
g547
I20
tp3159
a(g547
g550
I7
tp3160
a(g550
g547
I7
tp3161
a(g547
g320
I17
tp3162
a(g320
g547
I17
tp3163
a(g547
g77
I33
tp3164
a(g77
g547
I33
tp3165
a(g547
g74
I22
tp3166
a(g74
g547
I22
tp3167
a(g547
g317
I17
tp3168
a(g317
g547
I17
tp3169
a(g517
g299
I33
tp3170
a(g299
g517
I33
tp3171
a(g517
g514
I2
tp3172
a(g514
g517
I2
tp3173
a(g517
g618
I19
tp3174
a(g618
g517
I19
tp3175
a(g517
g56
I25
tp3176
a(g56
g517
I25
tp3177
a(g517
g523
I16
tp3178
a(g523
g517
I16
tp3179
a(g517
g612
I19
tp3180
a(g612
g517
I19
tp3181
a(g517
g511
I9
tp3182
a(g511
g517
I9
tp3183
a(g517
g507
I13
tp3184
a(g507
g517
I13
tp3185
a(g517
g59
I27
tp3186
a(g59
g517
I27
tp3187
a(g517
g615
I19
tp3188
a(g615
g517
I19
tp3189
a(g517
g605
I18
tp3190
a(g605
g517
I18
tp3191
a(g517
g296
I11
tp3192
a(g296
g517
I11
tp3193
a(g517
g606
I19
tp3194
a(g606
g517
I19
tp3195
a(g517
g508
I16
tp3196
a(g508
g517
I16
tp3197
a(g517
g627
I22
tp3198
a(g627
g517
I22
tp3199
a(g517
g293
I12
tp3200
a(g293
g517
I12
tp3201
a(g517
g526
I21
tp3202
a(g526
g517
I21
tp3203
a(g517
g621
I18
tp3204
a(g621
g517
I18
tp3205
a(g517
g609
I18
tp3206
a(g609
g517
I18
tp3207
a(g517
g287
I26
tp3208
a(g287
g517
I26
tp3209
a(g517
g624
I19
tp3210
a(g624
g517
I19
tp3211
a(g517
g414
I39
tp3212
a(g414
g517
I39
tp3213
a(g517
g529
I27
tp3214
a(g529
g517
I27
tp3215
a(g517
g520
I2
tp3216
a(g520
g517
I2
tp3217
a(g544
g483
I37
tp3218
a(g483
g544
I37
tp3219
a(g544
g480
I26
tp3220
a(g480
g544
I26
tp3221
a(g544
g132
I30
tp3222
a(g132
g544
I30
tp3223
a(g544
g538
I39
tp3224
a(g538
g544
I39
tp3225
a(g544
g547
I20
tp3226
a(g547
g544
I20
tp3227
a(g544
g550
I28
tp3228
a(g550
g544
I28
tp3229
a(g544
g472
I35
tp3230
a(g472
g544
I35
tp3231
a(g583
g562
I38
tp3232
a(g562
g583
I38
tp3233
a(g583
g577
I11
tp3234
a(g577
g583
I11
tp3235
a(g583
g592
I22
tp3236
a(g592
g583
I22
tp3237
a(g583
g586
I1
tp3238
a(g586
g583
I1
tp3239
a(g583
g568
I32
tp3240
a(g568
g583
I32
tp3241
a(g583
g571
I26
tp3242
a(g571
g583
I26
tp3243
a(g583
g589
I11
tp3244
a(g589
g583
I11
tp3245
a(g583
g595
I39
tp3246
a(g595
g583
I39
tp3247
a(g583
g580
I3
tp3248
a(g580
g583
I3
tp3249
a(g583
g574
I21
tp3250
a(g574
g583
I21
tp3251
a(g583
g565
I36
tp3252
a(g565
g583
I36
tp3253
a(g544
g320
I35
tp3254
a(g320
g544
I35
tp3255
a(g544
g125
I36
tp3256
a(g125
g544
I36
tp3257
a(g544
g314
I37
tp3258
a(g314
g544
I37
tp3259
a(g544
g74
I19
tp3260
a(g74
g544
I19
tp3261
a(g544
g476
I24
tp3262
a(g476
g544
I24
tp3263
a(g544
g317
I11
tp3264
a(g317
g544
I11
tp3265
a(g544
g129
I32
tp3266
a(g129
g544
I32
tp3267
a(g544
g541
I24
tp3268
a(g541
g544
I24
tp3269
a(g550
g553
I37
tp3270
a(g553
g550
I37
tp3271
a(g550
g323
I38
tp3272
a(g323
g550
I38
tp3273
a(g550
g547
I7
tp3274
a(g547
g550
I7
tp3275
a(g550
g544
I28
tp3276
a(g544
g550
I28
tp3277
a(g550
g320
I11
tp3278
a(g320
g550
I11
tp3279
a(g550
g77
I27
tp3280
a(g77
g550
I27
tp3281
a(g550
g74
I28
tp3282
a(g74
g550
I28
tp3283
a(g550
g317
I24
tp3284
a(g317
g550
I24
tp3285
a(g20
g23
I32
tp3286
a(g23
g20
I32
tp3287
a(g20
g17
I35
tp3288
a(g17
g20
I35
tp3289
a(g495
g486
I7
tp3290
a(g486
g495
I7
tp3291
a(g495
g374
I20
tp3292
a(g374
g495
I20
tp3293
a(g495
g498
I3
tp3294
a(g498
g495
I3
tp3295
a(g495
g504
I6
tp3296
a(g504
g495
I6
tp3297
a(g495
g492
I5
tp3298
a(g492
g495
I5
tp3299
a(g495
g489
I6
tp3300
a(g489
g495
I6
tp3301
a(g495
g371
I22
tp3302
a(g371
g495
I22
tp3303
a(g495
g501
I5
tp3304
a(g501
g495
I5
tp3305
a(g204
g451
I39
tp3306
a(g451
g204
I39
tp3307
a(g204
g160
I15
tp3308
a(g160
g204
I15
tp3309
a(g204
g645
I38
tp3310
a(g645
g204
I38
tp3311
a(g204
g197
I8
tp3312
a(g197
g204
I8
tp3313
a(g204
g112
I11
tp3314
a(g112
g204
I11
tp3315
a(g204
g439
I33
tp3316
a(g439
g204
I33
tp3317
a(g204
g139
I22
tp3318
a(g139
g204
I22
tp3319
a(g204
g154
I10
tp3320
a(g154
g204
I10
tp3321
a(g204
g207
I4
tp3322
a(g207
g204
I4
tp3323
a(g204
g442
I32
tp3324
a(g442
g204
I32
tp3325
a(g204
g445
I29
tp3326
a(g445
g204
I29
tp3327
a(g204
g201
I3
tp3328
a(g201
g204
I3
tp3329
a(g204
g649
I36
tp3330
a(g649
g204
I36
tp3331
a(g204
g170
I33
tp3332
a(g170
g204
I33
tp3333
a(g204
g163
I14
tp3334
a(g163
g204
I14
tp3335
a(g612
g284
I39
tp3336
a(g284
g612
I39
tp3337
a(g612
g53
I31
tp3338
a(g53
g612
I31
tp3339
a(g612
g514
I17
tp3340
a(g514
g612
I17
tp3341
a(g612
g618
I2
tp3342
a(g618
g612
I2
tp3343
a(g612
g56
I23
tp3344
a(g56
g612
I23
tp3345
a(g612
g523
I35
tp3346
a(g523
g612
I35
tp3347
a(g612
g517
I19
tp3348
a(g517
g612
I19
tp3349
a(g612
g511
I9
tp3350
a(g511
g612
I9
tp3351
a(g612
g507
I5
tp3352
a(g507
g612
I5
tp3353
a(g612
g615
I1
tp3354
a(g615
g612
I1
tp3355
a(g612
g605
I6
tp3356
a(g605
g612
I6
tp3357
a(g612
g296
I23
tp3358
a(g296
g612
I23
tp3359
a(g612
g606
I12
tp3360
a(g606
g612
I12
tp3361
a(g612
g508
I2
tp3362
a(g508
g612
I2
tp3363
a(g612
g627
I13
tp3364
a(g627
g612
I13
tp3365
a(g612
g293
I19
tp3366
a(g293
g612
I19
tp3367
a(g612
g621
I6
tp3368
a(g621
g612
I6
tp3369
a(g612
g609
I2
tp3370
a(g609
g612
I2
tp3371
a(g612
g287
I13
tp3372
a(g287
g612
I13
tp3373
a(g612
g630
I35
tp3374
a(g630
g612
I35
tp3375
a(g612
g624
I8
tp3376
a(g624
g612
I8
tp3377
a(g612
g414
I37
tp3378
a(g414
g612
I37
tp3379
a(g612
g520
I21
tp3380
a(g520
g612
I21
tp3381
a(g429
g428
I16
tp3382
a(g428
g429
I16
tp3383
a(g429
g432
I25
tp3384
a(g432
g429
I25
tp3385
a(g429
g436
I30
tp3386
a(g436
g429
I30
tp3387
a(g204
g142
I14
tp3388
a(g142
g204
I14
tp3389
a(g204
g435
I34
tp3390
a(g435
g204
I34
tp3391
a(g204
g652
I35
tp3392
a(g652
g204
I35
tp3393
a(g204
g598
I17
tp3394
a(g598
g204
I17
tp3395
a(g204
g164
I12
tp3396
a(g164
g204
I12
tp3397
a(g204
g448
I33
tp3398
a(g448
g204
I33
tp3399
a(g204
g157
I15
tp3400
a(g157
g204
I15
tp3401
a(g204
g602
I16
tp3402
a(g602
g204
I16
tp3403
a(g204
g135
I26
tp3404
a(g135
g204
I26
tp3405
a(g204
g115
I11
tp3406
a(g115
g204
I11
tp3407
a(g204
g167
I17
tp3408
a(g167
g204
I17
tp3409
a(g204
g108
I12
tp3410
a(g108
g204
I12
tp3411
a(g204
g642
I19
tp3412
a(g642
g204
I19
tp3413
a(g204
g151
I6
tp3414
a(g151
g204
I6
tp3415
a(g173
g439
I36
tp3416
a(g439
g173
I36
tp3417
a(g173
g139
I36
tp3418
a(g139
g173
I36
tp3419
a(g173
g442
I37
tp3420
a(g442
g173
I37
tp3421
a(g173
g176
I16
tp3422
a(g176
g173
I16
tp3423
a(g173
g170
I13
tp3424
a(g170
g173
I13
tp3425
a(g173
g163
I32
tp3426
a(g163
g173
I32
tp3427
a(g173
g142
I34
tp3428
a(g142
g173
I34
tp3429
a(g173
g182
I27
tp3430
a(g182
g173
I27
tp3431
a(g173
g435
I37
tp3432
a(g435
g173
I37
tp3433
a(g173
g164
I35
tp3434
a(g164
g173
I35
tp3435
a(g173
g191
I33
tp3436
a(g191
g173
I33
tp3437
a(g173
g188
I31
tp3438
a(g188
g173
I31
tp3439
a(g173
g135
I38
tp3440
a(g135
g173
I38
tp3441
a(g173
g115
I38
tp3442
a(g115
g173
I38
tp3443
a(g173
g167
I29
tp3444
a(g167
g173
I29
tp3445
a(g173
g194
I38
tp3446
a(g194
g173
I38
tp3447
a(g173
g179
I20
tp3448
a(g179
g173
I20
tp3449
a(g173
g185
I29
tp3450
a(g185
g173
I29
tp3451
a(g472
g483
I32
tp3452
a(g483
g472
I32
tp3453
a(g472
g480
I34
tp3454
a(g480
g472
I34
tp3455
a(g472
g544
I35
tp3456
a(g544
g472
I35
tp3457
a(g472
g476
I38
tp3458
a(g476
g472
I38
tp3459
a(g442
g197
I31
tp3460
a(g197
g442
I31
tp3461
a(g442
g112
I21
tp3462
a(g112
g442
I21
tp3463
a(g442
g439
I0
tp3464
a(g439
g442
I0
tp3465
a(g442
g139
I10
tp3466
a(g139
g442
I10
tp3467
a(g442
g207
I32
tp3468
a(g207
g442
I32
tp3469
a(g442
g204
I32
tp3470
a(g204
g442
I32
tp3471
a(g442
g173
I37
tp3472
a(g173
g442
I37
tp3473
a(g442
g445
I4
tp3474
a(g445
g442
I4
tp3475
a(g442
g428
I39
tp3476
a(g428
g442
I39
tp3477
a(g442
g201
I32
tp3478
a(g201
g442
I32
tp3479
a(g442
g170
I28
tp3480
a(g170
g442
I28
tp3481
a(g442
g163
I25
tp3482
a(g163
g442
I25
tp3483
a(g442
g142
I20
tp3484
a(g142
g442
I20
tp3485
a(g442
g435
I1
tp3486
a(g435
g442
I1
tp3487
a(g442
g598
I30
tp3488
a(g598
g442
I30
tp3489
a(g442
g164
I23
tp3490
a(g164
g442
I23
tp3491
a(g442
g432
I30
tp3492
a(g432
g442
I30
tp3493
a(g442
g436
I25
tp3494
a(g436
g442
I25
tp3495
a(g442
g602
I22
tp3496
a(g602
g442
I22
tp3497
a(g442
g135
I6
tp3498
a(g135
g442
I6
tp3499
a(g442
g115
I22
tp3500
a(g115
g442
I22
tp3501
a(g442
g167
I25
tp3502
a(g167
g442
I25
tp3503
a(g442
g108
I20
tp3504
a(g108
g442
I20
tp3505
a(g442
g642
I33
tp3506
a(g642
g442
I33
tp3507
a(g442
g151
I37
tp3508
a(g151
g442
I37
tp3509
a(g62
g299
I24
tp3510
a(g299
g62
I24
tp3511
a(g62
g330
I18
tp3512
a(g330
g62
I18
tp3513
a(g62
g226
I25
tp3514
a(g226
g62
I25
tp3515
a(g62
g229
I21
tp3516
a(g229
g62
I21
tp3517
a(g62
g232
I13
tp3518
a(g232
g62
I13
tp3519
a(g62
g235
I8
tp3520
a(g235
g62
I8
tp3521
a(g62
g214
I34
tp3522
a(g214
g62
I34
tp3523
a(g62
g217
I32
tp3524
a(g217
g62
I32
tp3525
a(g62
g59
I37
tp3526
a(g59
g62
I37
tp3527
a(g62
g333
I7
tp3528
a(g333
g62
I7
tp3529
a(g62
g336
I5
tp3530
a(g336
g62
I5
tp3531
a(g62
g211
I38
tp3532
a(g211
g62
I38
tp3533
a(g62
g327
I31
tp3534
a(g327
g62
I31
tp3535
a(g62
g526
I38
tp3536
a(g526
g62
I38
tp3537
a(g62
g238
I39
tp3538
a(g238
g62
I39
tp3539
a(g62
g532
I21
tp3540
a(g532
g62
I21
tp3541
a(g62
g308
I33
tp3542
a(g308
g62
I33
tp3543
a(g62
g326
I24
tp3544
a(g326
g62
I24
tp3545
a(g62
g68
I39
tp3546
a(g68
g62
I39
tp3547
a(g62
g220
I30
tp3548
a(g220
g62
I30
tp3549
a(g62
g302
I12
tp3550
a(g302
g62
I12
tp3551
a(g62
g223
I27
tp3552
a(g223
g62
I27
tp3553
a(g62
g210
I35
tp3554
a(g210
g62
I35
tp3555
a(g62
g529
I33
tp3556
a(g529
g62
I33
tp3557
a(g62
g535
I21
tp3558
a(g535
g62
I21
tp3559
a(g214
g226
I9
tp3560
a(g226
g214
I9
tp3561
a(g214
g229
I13
tp3562
a(g229
g214
I13
tp3563
a(g214
g232
I21
tp3564
a(g232
g214
I21
tp3565
a(g214
g235
I38
tp3566
a(g235
g214
I38
tp3567
a(g214
g62
I34
tp3568
a(g62
g214
I34
tp3569
a(g214
g217
I1
tp3570
a(g217
g214
I1
tp3571
a(g214
g333
I36
tp3572
a(g333
g214
I36
tp3573
a(g214
g336
I30
tp3574
a(g336
g214
I30
tp3575
a(g214
g211
I6
tp3576
a(g211
g214
I6
tp3577
a(g214
g220
I4
tp3578
a(g220
g214
I4
tp3579
a(g214
g223
I6
tp3580
a(g223
g214
I6
tp3581
a(g214
g210
I2
tp3582
a(g210
g214
I2
tp3583
a(g469
g339
I32
tp3584
a(g339
g469
I32
tp3585
a(g469
g381
I37
tp3586
a(g381
g469
I37
tp3587
a(g469
g451
I35
tp3588
a(g451
g469
I35
tp3589
a(g469
g405
I35
tp3590
a(g405
g469
I35
tp3591
a(g469
g401
I33
tp3592
a(g401
g469
I33
tp3593
a(g469
g122
I8
tp3594
a(g122
g469
I8
tp3595
a(g469
g408
I37
tp3596
a(g408
g469
I37
tp3597
a(g469
g343
I34
tp3598
a(g343
g469
I34
tp3599
a(g469
g340
I32
tp3600
a(g340
g469
I32
tp3601
a(g469
g391
I34
tp3602
a(g391
g469
I34
tp3603
a(g469
g360
I15
tp3604
a(g360
g469
I15
tp3605
a(g469
g411
I39
tp3606
a(g411
g469
I39
tp3607
a(g469
g466
I4
tp3608
a(g466
g469
I4
tp3609
a(g469
g646
I34
tp3610
a(g646
g469
I34
tp3611
a(g469
g457
I31
tp3612
a(g457
g469
I31
tp3613
a(g469
g463
I11
tp3614
a(g463
g469
I11
tp3615
a(g469
g448
I38
tp3616
a(g448
g469
I38
tp3617
a(g469
g424
I31
tp3618
a(g424
g469
I31
tp3619
a(g469
g388
I34
tp3620
a(g388
g469
I34
tp3621
a(g469
g460
I28
tp3622
a(g460
g469
I28
tp3623
a(g469
g420
I35
tp3624
a(g420
g469
I35
tp3625
a(g511
g53
I38
tp3626
a(g53
g511
I38
tp3627
a(g511
g514
I7
tp3628
a(g514
g511
I7
tp3629
a(g511
g618
I9
tp3630
a(g618
g511
I9
tp3631
a(g511
g56
I23
tp3632
a(g56
g511
I23
tp3633
a(g511
g523
I26
tp3634
a(g523
g511
I26
tp3635
a(g511
g517
I9
tp3636
a(g517
g511
I9
tp3637
a(g511
g612
I9
tp3638
a(g612
g511
I9
tp3639
a(g511
g507
I3
tp3640
a(g507
g511
I3
tp3641
a(g511
g59
I34
tp3642
a(g59
g511
I34
tp3643
a(g511
g615
I9
tp3644
a(g615
g511
I9
tp3645
a(g511
g605
I10
tp3646
a(g605
g511
I10
tp3647
a(g511
g296
I16
tp3648
a(g296
g511
I16
tp3649
a(g511
g606
I14
tp3650
a(g606
g511
I14
tp3651
a(g511
g508
I7
tp3652
a(g508
g511
I7
tp3653
a(g511
g627
I15
tp3654
a(g627
g511
I15
tp3655
a(g511
g293
I13
tp3656
a(g293
g511
I13
tp3657
a(g511
g526
I30
tp3658
a(g526
g511
I30
tp3659
a(g511
g621
I9
tp3660
a(g621
g511
I9
tp3661
a(g511
g609
I9
tp3662
a(g609
g511
I9
tp3663
a(g511
g287
I18
tp3664
a(g287
g511
I18
tp3665
a(g511
g630
I37
tp3666
a(g630
g511
I37
tp3667
a(g511
g624
I10
tp3668
a(g624
g511
I10
tp3669
a(g511
g414
I36
tp3670
a(g414
g511
I36
tp3671
a(g511
g529
I37
tp3672
a(g529
g511
I37
tp3673
a(g511
g520
I12
tp3674
a(g520
g511
I12
tp3675
a(g242
g38
I33
tp3676
a(g38
g242
I33
tp3677
a(g242
g251
I25
tp3678
a(g251
g242
I25
tp3679
a(g242
g257
I38
tp3680
a(g257
g242
I38
tp3681
a(g242
g245
I14
tp3682
a(g245
g242
I14
tp3683
a(g242
g254
I27
tp3684
a(g254
g242
I27
tp3685
a(g242
g32
I11
tp3686
a(g32
g242
I11
tp3687
a(g242
g248
I19
tp3688
a(g248
g242
I19
tp3689
a(g242
g241
I5
tp3690
a(g241
g242
I5
tp3691
a(g242
g35
I12
tp3692
a(g35
g242
I12
tp3693
a(g176
g173
I16
tp3694
a(g173
g176
I16
tp3695
a(g176
g170
I30
tp3696
a(g170
g176
I30
tp3697
a(g176
g182
I10
tp3698
a(g182
g176
I10
tp3699
a(g176
g191
I16
tp3700
a(g191
g176
I16
tp3701
a(g176
g188
I14
tp3702
a(g188
g176
I14
tp3703
a(g176
g194
I22
tp3704
a(g194
g176
I22
tp3705
a(g176
g179
I3
tp3706
a(g179
g176
I3
tp3707
a(g176
g185
I13
tp3708
a(g185
g176
I13
tp3709
a(g217
g226
I7
tp3710
a(g226
g217
I7
tp3711
a(g217
g229
I11
tp3712
a(g229
g217
I11
tp3713
a(g217
g232
I19
tp3714
a(g232
g217
I19
tp3715
a(g217
g235
I37
tp3716
a(g235
g217
I37
tp3717
a(g217
g62
I32
tp3718
a(g62
g217
I32
tp3719
a(g217
g214
I1
tp3720
a(g214
g217
I1
tp3721
a(g217
g333
I34
tp3722
a(g333
g217
I34
tp3723
a(g217
g336
I29
tp3724
a(g336
g217
I29
tp3725
a(g217
g211
I8
tp3726
a(g211
g217
I8
tp3727
a(g217
g220
I2
tp3728
a(g220
g217
I2
tp3729
a(g217
g223
I5
tp3730
a(g223
g217
I5
tp3731
a(g217
g210
I4
tp3732
a(g210
g217
I4
tp3733
a(g507
g53
I35
tp3734
a(g53
g507
I35
tp3735
a(g507
g514
I11
tp3736
a(g514
g507
I11
tp3737
a(g507
g618
I6
tp3738
a(g618
g507
I6
tp3739
a(g507
g56
I22
tp3740
a(g56
g507
I22
tp3741
a(g507
g523
I30
tp3742
a(g523
g507
I30
tp3743
a(g507
g517
I13
tp3744
a(g517
g507
I13
tp3745
a(g507
g612
I5
tp3746
a(g612
g507
I5
tp3747
a(g507
g511
I3
tp3748
a(g511
g507
I3
tp3749
a(g507
g59
I36
tp3750
a(g59
g507
I36
tp3751
a(g507
g615
I5
tp3752
a(g615
g507
I5
tp3753
a(g507
g605
I8
tp3754
a(g605
g507
I8
tp3755
a(g507
g296
I18
tp3756
a(g296
g507
I18
tp3757
a(g507
g606
I12
tp3758
a(g606
g507
I12
tp3759
a(g507
g508
I3
tp3760
a(g508
g507
I3
tp3761
a(g507
g627
I13
tp3762
a(g627
g507
I13
tp3763
a(g507
g293
I15
tp3764
a(g293
g507
I15
tp3765
a(g507
g526
I34
tp3766
a(g526
g507
I34
tp3767
a(g507
g621
I7
tp3768
a(g621
g507
I7
tp3769
a(g507
g609
I5
tp3770
a(g609
g507
I5
tp3771
a(g507
g287
I16
tp3772
a(g287
g507
I16
tp3773
a(g507
g630
I36
tp3774
a(g630
g507
I36
tp3775
a(g507
g624
I9
tp3776
a(g624
g507
I9
tp3777
a(g507
g414
I36
tp3778
a(g414
g507
I36
tp3779
a(g507
g520
I16
tp3780
a(g520
g507
I16
tp3781
a(g445
g197
I27
tp3782
a(g197
g445
I27
tp3783
a(g445
g112
I18
tp3784
a(g112
g445
I18
tp3785
a(g445
g439
I5
tp3786
a(g439
g445
I5
tp3787
a(g445
g139
I9
tp3788
a(g139
g445
I9
tp3789
a(g445
g154
I38
tp3790
a(g154
g445
I38
tp3791
a(g445
g207
I30
tp3792
a(g207
g445
I30
tp3793
a(g445
g204
I29
tp3794
a(g204
g445
I29
tp3795
a(g445
g442
I4
tp3796
a(g442
g445
I4
tp3797
a(g445
g428
I39
tp3798
a(g428
g445
I39
tp3799
a(g445
g201
I29
tp3800
a(g201
g445
I29
tp3801
a(g445
g170
I31
tp3802
a(g170
g445
I31
tp3803
a(g445
g163
I24
tp3804
a(g163
g445
I24
tp3805
a(g445
g142
I19
tp3806
a(g142
g445
I19
tp3807
a(g445
g435
I6
tp3808
a(g435
g445
I6
tp3809
a(g445
g598
I25
tp3810
a(g598
g445
I25
tp3811
a(g445
g164
I22
tp3812
a(g164
g445
I22
tp3813
a(g445
g448
I37
tp3814
a(g448
g445
I37
tp3815
a(g445
g432
I30
tp3816
a(g432
g445
I30
tp3817
a(g445
g436
I26
tp3818
a(g436
g445
I26
tp3819
a(g445
g602
I18
tp3820
a(g602
g445
I18
tp3821
a(g445
g135
I4
tp3822
a(g135
g445
I4
tp3823
a(g445
g115
I20
tp3824
a(g115
g445
I20
tp3825
a(g445
g167
I25
tp3826
a(g167
g445
I25
tp3827
a(g445
g108
I17
tp3828
a(g108
g445
I17
tp3829
a(g445
g642
I29
tp3830
a(g642
g445
I29
tp3831
a(g445
g151
I34
tp3832
a(g151
g445
I34
tp3833
a(g59
g299
I18
tp3834
a(g299
g59
I18
tp3835
a(g59
g514
I28
tp3836
a(g514
g59
I28
tp3837
a(g59
g229
I39
tp3838
a(g229
g59
I39
tp3839
a(g59
g232
I34
tp3840
a(g232
g59
I34
tp3841
a(g59
g235
I30
tp3842
a(g235
g59
I30
tp3843
a(g59
g56
I28
tp3844
a(g56
g59
I28
tp3845
a(g59
g523
I21
tp3846
a(g523
g59
I21
tp3847
a(g59
g517
I27
tp3848
a(g517
g59
I27
tp3849
a(g59
g62
I37
tp3850
a(g62
g59
I37
tp3851
a(g59
g511
I34
tp3852
a(g511
g59
I34
tp3853
a(g59
g507
I36
tp3854
a(g507
g59
I36
tp3855
a(g59
g336
I39
tp3856
a(g336
g59
I39
tp3857
a(g59
g605
I36
tp3858
a(g605
g59
I36
tp3859
a(g59
g296
I18
tp3860
a(g296
g59
I18
tp3861
a(g59
g606
I33
tp3862
a(g606
g59
I33
tp3863
a(g59
g508
I39
tp3864
a(g508
g59
I39
tp3865
a(g59
g293
I22
tp3866
a(g293
g59
I22
tp3867
a(g59
g526
I22
tp3868
a(g526
g59
I22
tp3869
a(g59
g532
I37
tp3870
a(g532
g59
I37
tp3871
a(g59
g302
I35
tp3872
a(g302
g59
I35
tp3873
a(g59
g529
I24
tp3874
a(g529
g59
I24
tp3875
a(g59
g520
I24
tp3876
a(g520
g59
I24
tp3877
a(g615
g284
I39
tp3878
a(g284
g615
I39
tp3879
a(g615
g53
I32
tp3880
a(g53
g615
I32
tp3881
a(g615
g514
I17
tp3882
a(g514
g615
I17
tp3883
a(g615
g618
I1
tp3884
a(g618
g615
I1
tp3885
a(g615
g56
I25
tp3886
a(g56
g615
I25
tp3887
a(g615
g523
I36
tp3888
a(g523
g615
I36
tp3889
a(g615
g517
I19
tp3890
a(g517
g615
I19
tp3891
a(g615
g612
I1
tp3892
a(g612
g615
I1
tp3893
a(g615
g511
I9
tp3894
a(g511
g615
I9
tp3895
a(g615
g507
I5
tp3896
a(g507
g615
I5
tp3897
a(g615
g605
I8
tp3898
a(g605
g615
I8
tp3899
a(g615
g296
I24
tp3900
a(g296
g615
I24
tp3901
a(g615
g606
I14
tp3902
a(g606
g615
I14
tp3903
a(g615
g508
I3
tp3904
a(g508
g615
I3
tp3905
a(g615
g627
I11
tp3906
a(g627
g615
I11
tp3907
a(g615
g293
I20
tp3908
a(g293
g615
I20
tp3909
a(g615
g621
I4
tp3910
a(g621
g615
I4
tp3911
a(g615
g609
I3
tp3912
a(g609
g615
I3
tp3913
a(g615
g287
I15
tp3914
a(g287
g615
I15
tp3915
a(g615
g630
I33
tp3916
a(g630
g615
I33
tp3917
a(g615
g624
I6
tp3918
a(g624
g615
I6
tp3919
a(g615
g414
I35
tp3920
a(g414
g615
I35
tp3921
a(g615
g520
I22
tp3922
a(g520
g615
I22
tp3923
a(g411
g636
I13
tp3924
a(g636
g411
I13
tp3925
a(g411
g339
I32
tp3926
a(g339
g411
I32
tp3927
a(g411
g381
I15
tp3928
a(g381
g411
I15
tp3929
a(g411
g451
I28
tp3930
a(g451
g411
I28
tp3931
a(g411
g405
I7
tp3932
a(g405
g411
I7
tp3933
a(g411
g401
I10
tp3934
a(g401
g411
I10
tp3935
a(g411
g122
I37
tp3936
a(g122
g411
I37
tp3937
a(g411
g408
I4
tp3938
a(g408
g411
I4
tp3939
a(g411
g645
I26
tp3940
a(g645
g411
I26
tp3941
a(g411
g343
I33
tp3942
a(g343
g411
I33
tp3943
a(g411
g340
I37
tp3944
a(g340
g411
I37
tp3945
a(g411
g391
I33
tp3946
a(g391
g411
I33
tp3947
a(g411
g382
I11
tp3948
a(g382
g411
I11
tp3949
a(g411
g360
I28
tp3950
a(g360
g411
I28
tp3951
a(g411
g469
I39
tp3952
a(g469
g411
I39
tp3953
a(g411
g421
I11
tp3954
a(g421
g411
I11
tp3955
a(g411
g649
I27
tp3956
a(g649
g411
I27
tp3957
a(g411
g633
I10
tp3958
a(g633
g411
I10
tp3959
a(g411
g646
I25
tp3960
a(g646
g411
I25
tp3961
a(g411
g457
I24
tp3962
a(g457
g411
I24
tp3963
a(g411
g463
I34
tp3964
a(g463
g411
I34
tp3965
a(g411
g652
I27
tp3966
a(g652
g411
I27
tp3967
a(g411
g448
I36
tp3968
a(g448
g411
I36
tp3969
a(g411
g385
I18
tp3970
a(g385
g411
I18
tp3971
a(g411
g424
I12
tp3972
a(g424
g411
I12
tp3973
a(g411
g414
I39
tp3974
a(g414
g411
I39
tp3975
a(g411
g388
I32
tp3976
a(g388
g411
I32
tp3977
a(g411
g460
I24
tp3978
a(g460
g411
I24
tp3979
a(g411
g420
I17
tp3980
a(g420
g411
I17
tp3981
a(g466
g339
I36
tp3982
a(g339
g466
I36
tp3983
a(g466
g451
I34
tp3984
a(g451
g466
I34
tp3985
a(g466
g405
I37
tp3986
a(g405
g466
I37
tp3987
a(g466
g401
I34
tp3988
a(g401
g466
I34
tp3989
a(g466
g122
I6
tp3990
a(g122
g466
I6
tp3991
a(g466
g408
I39
tp3992
a(g408
g466
I39
tp3993
a(g466
g645
I39
tp3994
a(g645
g466
I39
tp3995
a(g466
g343
I38
tp3996
a(g343
g466
I38
tp3997
a(g466
g340
I36
tp3998
a(g340
g466
I36
tp3999
a(g466
g391
I38
tp4000
a(g391
g466
I38
tp4001
a(g466
g360
I19
tp4002
a(g360
g466
I19
tp4003
a(g466
g469
I4
tp4004
a(g469
g466
I4
tp4005
a(g466
g646
I33
tp4006
a(g646
g466
I33
tp4007
a(g466
g457
I30
tp4008
a(g457
g466
I30
tp4009
a(g466
g463
I10
tp4010
a(g463
g466
I10
tp4011
a(g466
g448
I36
tp4012
a(g448
g466
I36
tp4013
a(g466
g424
I32
tp4014
a(g424
g466
I32
tp4015
a(g466
g388
I38
tp4016
a(g388
g466
I38
tp4017
a(g466
g460
I27
tp4018
a(g460
g466
I27
tp4019
a(g466
g420
I39
tp4020
a(g420
g466
I39
tp4021
a(g421
g365
I37
tp4022
a(g365
g421
I37
tp4023
a(g421
g397
I38
tp4024
a(g397
g421
I38
tp4025
a(g421
g636
I23
tp4026
a(g636
g421
I23
tp4027
a(g421
g339
I25
tp4028
a(g339
g421
I25
tp4029
a(g421
g381
I6
tp4030
a(g381
g421
I6
tp4031
a(g421
g352
I32
tp4032
a(g352
g421
I32
tp4033
a(g421
g349
I32
tp4034
a(g349
g421
I32
tp4035
a(g421
g451
I38
tp4036
a(g451
g421
I38
tp4037
a(g421
g405
I18
tp4038
a(g405
g421
I18
tp4039
a(g421
g401
I19
tp4040
a(g401
g421
I19
tp4041
a(g421
g394
I31
tp4042
a(g394
g421
I31
tp4043
a(g421
g408
I15
tp4044
a(g408
g421
I15
tp4045
a(g421
g645
I37
tp4046
a(g645
g421
I37
tp4047
a(g421
g343
I25
tp4048
a(g343
g421
I25
tp4049
a(g421
g340
I29
tp4050
a(g340
g421
I29
tp4051
a(g421
g391
I25
tp4052
a(g391
g421
I25
tp4053
a(g421
g382
I0
tp4054
a(g382
g421
I0
tp4055
a(g421
g360
I27
tp4056
a(g360
g421
I27
tp4057
a(g421
g411
I11
tp4058
a(g411
g421
I11
tp4059
a(g421
g649
I38
tp4060
a(g649
g421
I38
tp4061
a(g421
g633
I20
tp4062
a(g633
g421
I20
tp4063
a(g421
g646
I36
tp4064
a(g646
g421
I36
tp4065
a(g421
g457
I33
tp4066
a(g457
g421
I33
tp4067
a(g421
g377
I36
tp4068
a(g377
g421
I36
tp4069
a(g421
g463
I38
tp4070
a(g463
g421
I38
tp4071
a(g421
g652
I38
tp4072
a(g652
g421
I38
tp4073
a(g421
g357
I35
tp4074
a(g357
g421
I35
tp4075
a(g421
g378
I38
tp4076
a(g378
g421
I38
tp4077
a(g421
g630
I32
tp4078
a(g630
g421
I32
tp4079
a(g421
g385
I8
tp4080
a(g385
g421
I8
tp4081
a(g421
g346
I30
tp4082
a(g346
g421
I30
tp4083
a(g421
g424
I21
tp4084
a(g424
g421
I21
tp4085
a(g421
g414
I30
tp4086
a(g414
g421
I30
tp4087
a(g421
g388
I23
tp4088
a(g388
g421
I23
tp4089
a(g421
g460
I33
tp4090
a(g460
g421
I33
tp4091
a(g421
g420
I9
tp4092
a(g420
g421
I9
tp4093
a(g428
g439
I39
tp4094
a(g439
g428
I39
tp4095
a(g428
g429
I16
tp4096
a(g429
g428
I16
tp4097
a(g428
g442
I39
tp4098
a(g442
g428
I39
tp4099
a(g428
g445
I39
tp4100
a(g445
g428
I39
tp4101
a(g428
g435
I38
tp4102
a(g435
g428
I38
tp4103
a(g428
g432
I9
tp4104
a(g432
g428
I9
tp4105
a(g428
g436
I14
tp4106
a(g436
g428
I14
tp4107
a(g23
g20
I32
tp4108
a(g20
g23
I32
tp4109
a(g23
g26
I26
tp4110
a(g26
g23
I26
tp4111
a(g333
g299
I31
tp4112
a(g299
g333
I31
tp4113
a(g333
g330
I11
tp4114
a(g330
g333
I11
tp4115
a(g333
g226
I27
tp4116
a(g226
g333
I27
tp4117
a(g333
g229
I23
tp4118
a(g229
g333
I23
tp4119
a(g333
g232
I17
tp4120
a(g232
g333
I17
tp4121
a(g333
g235
I15
tp4122
a(g235
g333
I15
tp4123
a(g333
g62
I7
tp4124
a(g62
g333
I7
tp4125
a(g333
g214
I36
tp4126
a(g214
g333
I36
tp4127
a(g333
g217
I34
tp4128
a(g217
g333
I34
tp4129
a(g333
g336
I6
tp4130
a(g336
g333
I6
tp4131
a(g333
g327
I25
tp4132
a(g327
g333
I25
tp4133
a(g333
g532
I24
tp4134
a(g532
g333
I24
tp4135
a(g333
g308
I26
tp4136
a(g308
g333
I26
tp4137
a(g333
g326
I18
tp4138
a(g326
g333
I18
tp4139
a(g333
g68
I32
tp4140
a(g68
g333
I32
tp4141
a(g333
g220
I32
tp4142
a(g220
g333
I32
tp4143
a(g333
g302
I15
tp4144
a(g302
g333
I15
tp4145
a(g333
g223
I29
tp4146
a(g223
g333
I29
tp4147
a(g333
g210
I38
tp4148
a(g210
g333
I38
tp4149
a(g333
g529
I39
tp4150
a(g529
g333
I39
tp4151
a(g333
g535
I20
tp4152
a(g535
g333
I20
tp4153
a(g336
g299
I29
tp4154
a(g299
g336
I29
tp4155
a(g336
g330
I18
tp4156
a(g330
g336
I18
tp4157
a(g336
g226
I21
tp4158
a(g226
g336
I21
tp4159
a(g336
g229
I17
tp4160
a(g229
g336
I17
tp4161
a(g336
g232
I10
tp4162
a(g232
g336
I10
tp4163
a(g336
g235
I13
tp4164
a(g235
g336
I13
tp4165
a(g336
g62
I5
tp4166
a(g62
g336
I5
tp4167
a(g336
g214
I30
tp4168
a(g214
g336
I30
tp4169
a(g336
g217
I29
tp4170
a(g217
g336
I29
tp4171
a(g336
g59
I39
tp4172
a(g59
g336
I39
tp4173
a(g336
g333
I6
tp4174
a(g333
g336
I6
tp4175
a(g336
g211
I35
tp4176
a(g211
g336
I35
tp4177
a(g336
g327
I32
tp4178
a(g327
g336
I32
tp4179
a(g336
g532
I26
tp4180
a(g532
g336
I26
tp4181
a(g336
g308
I32
tp4182
a(g308
g336
I32
tp4183
a(g336
g326
I24
tp4184
a(g326
g336
I24
tp4185
a(g679
g365
I34
tp4186
a(g365
g679
I34
tp4187
a(g679
g397
I32
tp4188
a(g397
g679
I32
tp4189
a(g679
g352
I36
tp4190
a(g352
g679
I36
tp4191
a(g679
g349
I36
tp4192
a(g349
g679
I36
tp4193
a(g679
g394
I37
tp4194
a(g394
g679
I37
tp4195
a(g679
g398
I31
tp4196
a(g398
g679
I31
tp4197
a(g679
g377
I33
tp4198
a(g377
g679
I33
tp4199
a(g679
g238
I32
tp4200
a(g238
g679
I32
tp4201
a(g679
g357
I34
tp4202
a(g357
g679
I34
tp4203
a(g679
g378
I33
tp4204
a(g378
g679
I33
tp4205
a(g679
g346
I38
tp4206
a(g346
g679
I38
tp4207
a(g336
g68
I37
tp4208
a(g68
g336
I37
tp4209
a(g336
g220
I26
tp4210
a(g220
g336
I26
tp4211
a(g336
g302
I16
tp4212
a(g302
g336
I16
tp4213
a(g336
g223
I24
tp4214
a(g223
g336
I24
tp4215
a(g336
g210
I32
tp4216
a(g210
g336
I32
tp4217
a(g336
g529
I38
tp4218
a(g529
g336
I38
tp4219
a(g336
g535
I25
tp4220
a(g535
g336
I25
tp4221
a(g201
g451
I36
tp4222
a(g451
g201
I36
tp4223
a(g201
g160
I18
tp4224
a(g160
g201
I18
tp4225
a(g201
g645
I35
tp4226
a(g645
g201
I35
tp4227
a(g201
g197
I5
tp4228
a(g197
g201
I5
tp4229
a(g201
g112
I11
tp4230
a(g112
g201
I11
tp4231
a(g201
g439
I33
tp4232
a(g439
g201
I33
tp4233
a(g201
g139
I22
tp4234
a(g139
g201
I22
tp4235
a(g201
g154
I12
tp4236
a(g154
g201
I12
tp4237
a(g201
g207
I7
tp4238
a(g207
g201
I7
tp4239
a(g201
g204
I3
tp4240
a(g204
g201
I3
tp4241
a(g201
g442
I32
tp4242
a(g442
g201
I32
tp4243
a(g201
g445
I29
tp4244
a(g445
g201
I29
tp4245
a(g201
g649
I33
tp4246
a(g649
g201
I33
tp4247
a(g201
g646
I39
tp4248
a(g646
g201
I39
tp4249
a(g201
g170
I35
tp4250
a(g170
g201
I35
tp4251
a(g201
g163
I16
tp4252
a(g163
g201
I16
tp4253
a(g201
g142
I15
tp4254
a(g142
g201
I15
tp4255
a(g201
g435
I33
tp4256
a(g435
g201
I33
tp4257
a(g201
g652
I33
tp4258
a(g652
g201
I33
tp4259
a(g201
g598
I14
tp4260
a(g598
g201
I14
tp4261
a(g201
g164
I13
tp4262
a(g164
g201
I13
tp4263
a(g201
g448
I30
tp4264
a(g448
g201
I30
tp4265
a(g201
g157
I17
tp4266
a(g157
g201
I17
tp4267
a(g201
g602
I13
tp4268
a(g602
g201
I13
tp4269
a(g201
g135
I25
tp4270
a(g135
g201
I25
tp4271
a(g201
g115
I12
tp4272
a(g115
g201
I12
tp4273
a(g201
g167
I20
tp4274
a(g167
g201
I20
tp4275
a(g201
g108
I11
tp4276
a(g108
g201
I11
tp4277
a(g201
g642
I16
tp4278
a(g642
g201
I16
tp4279
a(g201
g151
I9
tp4280
a(g151
g201
I9
tp4281
a(g649
g636
I17
tp4282
a(g636
g649
I17
tp4283
a(g649
g451
I9
tp4284
a(g451
g649
I9
tp4285
a(g649
g405
I20
tp4286
a(g405
g649
I20
tp4287
a(g649
g401
I19
tp4288
a(g401
g649
I19
tp4289
a(g649
g122
I37
tp4290
a(g122
g649
I37
tp4291
a(g649
g408
I22
tp4292
a(g408
g649
I22
tp4293
a(g649
g645
I3
tp4294
a(g645
g649
I3
tp4295
a(g649
g197
I29
tp4296
a(g197
g649
I29
tp4297
a(g649
g382
I38
tp4298
a(g382
g649
I38
tp4299
a(g649
g204
I36
tp4300
a(g204
g649
I36
tp4301
a(g649
g411
I27
tp4302
a(g411
g649
I27
tp4303
a(g649
g421
I38
tp4304
a(g421
g649
I38
tp4305
a(g649
g201
I33
tp4306
a(g201
g649
I33
tp4307
a(g649
g633
I23
tp4308
a(g633
g649
I23
tp4309
a(g649
g646
I10
tp4310
a(g646
g649
I10
tp4311
a(g649
g457
I12
tp4312
a(g457
g649
I12
tp4313
a(g649
g463
I33
tp4314
a(g463
g649
I33
tp4315
a(g649
g652
I1
tp4316
a(g652
g649
I1
tp4317
a(g649
g598
I24
tp4318
a(g598
g649
I24
tp4319
a(g649
g448
I14
tp4320
a(g448
g649
I14
tp4321
a(g649
g424
I19
tp4322
a(g424
g649
I19
tp4323
a(g649
g602
I32
tp4324
a(g602
g649
I32
tp4325
a(g649
g460
I15
tp4326
a(g460
g649
I15
tp4327
a(g649
g108
I39
tp4328
a(g108
g649
I39
tp4329
a(g649
g642
I20
tp4330
a(g642
g649
I20
tp4331
a(g571
g86
I34
tp4332
a(g86
g571
I34
tp4333
a(g571
g562
I12
tp4334
a(g562
g571
I12
tp4335
a(g571
g577
I15
tp4336
a(g577
g571
I15
tp4337
a(g571
g89
I35
tp4338
a(g89
g571
I35
tp4339
a(g571
g92
I38
tp4340
a(g92
g571
I38
tp4341
a(g571
g586
I27
tp4342
a(g586
g571
I27
tp4343
a(g272
g278
I26
tp4344
a(g278
g272
I26
tp4345
a(g272
g41
I24
tp4346
a(g41
g272
I24
tp4347
a(g272
g269
I16
tp4348
a(g269
g272
I16
tp4349
a(g272
g284
I38
tp4350
a(g284
g272
I38
tp4351
a(g272
g266
I24
tp4352
a(g266
g272
I24
tp4353
a(g272
g257
I38
tp4354
a(g257
g272
I38
tp4355
a(g272
g263
I28
tp4356
a(g263
g272
I28
tp4357
a(g272
g47
I17
tp4358
a(g47
g272
I17
tp4359
a(g272
g44
I9
tp4360
a(g44
g272
I9
tp4361
a(g571
g568
I6
tp4362
a(g568
g571
I6
tp4363
a(g571
g583
I26
tp4364
a(g583
g571
I26
tp4365
a(g571
g589
I36
tp4366
a(g589
g571
I36
tp4367
a(g571
g559
I22
tp4368
a(g559
g571
I22
tp4369
a(g571
g556
I30
tp4370
a(g556
g571
I30
tp4371
a(g571
g580
I22
tp4372
a(g580
g571
I22
tp4373
a(g571
g83
I34
tp4374
a(g83
g571
I34
tp4375
a(g571
g574
I5
tp4376
a(g574
g571
I5
tp4377
a(g571
g565
I10
tp4378
a(g565
g571
I10
tp4379
a(g633
g636
I5
tp4380
a(g636
g633
I5
tp4381
a(g633
g381
I25
tp4382
a(g381
g633
I25
tp4383
a(g633
g451
I28
tp4384
a(g451
g633
I28
tp4385
a(g633
g405
I12
tp4386
a(g405
g633
I12
tp4387
a(g633
g401
I15
tp4388
a(g401
g633
I15
tp4389
a(g633
g408
I11
tp4390
a(g408
g633
I11
tp4391
a(g633
g645
I23
tp4392
a(g645
g633
I23
tp4393
a(g633
g382
I20
tp4394
a(g382
g633
I20
tp4395
a(g633
g360
I38
tp4396
a(g360
g633
I38
tp4397
a(g633
g411
I10
tp4398
a(g411
g633
I10
tp4399
a(g633
g421
I20
tp4400
a(g421
g633
I20
tp4401
a(g633
g649
I23
tp4402
a(g649
g633
I23
tp4403
a(g633
g646
I26
tp4404
a(g646
g633
I26
tp4405
a(g633
g457
I25
tp4406
a(g457
g633
I25
tp4407
a(g633
g652
I22
tp4408
a(g652
g633
I22
tp4409
a(g272
g50
I21
tp4410
a(g50
g272
I21
tp4411
a(g272
g281
I35
tp4412
a(g281
g272
I35
tp4413
a(g272
g275
I4
tp4414
a(g275
g272
I4
tp4415
a(g272
g260
I34
tp4416
a(g260
g272
I34
tp4417
a(g633
g448
I35
tp4418
a(g448
g633
I35
tp4419
a(g633
g385
I28
tp4420
a(g385
g633
I28
tp4421
a(g633
g424
I17
tp4422
a(g424
g633
I17
tp4423
a(g633
g460
I27
tp4424
a(g460
g633
I27
tp4425
a(g633
g420
I27
tp4426
a(g420
g633
I27
tp4427
a(g646
g636
I21
tp4428
a(g636
g646
I21
tp4429
a(g646
g381
I37
tp4430
a(g381
g646
I37
tp4431
a(g646
g451
I2
tp4432
a(g451
g646
I2
tp4433
a(g646
g405
I18
tp4434
a(g405
g646
I18
tp4435
a(g646
g401
I16
tp4436
a(g401
g646
I16
tp4437
a(g646
g122
I27
tp4438
a(g122
g646
I27
tp4439
a(g646
g408
I21
tp4440
a(g408
g646
I21
tp4441
a(g646
g645
I6
tp4442
a(g645
g646
I6
tp4443
a(g646
g197
I33
tp4444
a(g197
g646
I33
tp4445
a(g646
g382
I35
tp4446
a(g382
g646
I35
tp4447
a(g646
g360
I33
tp4448
a(g360
g646
I33
tp4449
a(g646
g469
I34
tp4450
a(g469
g646
I34
tp4451
a(g646
g411
I25
tp4452
a(g411
g646
I25
tp4453
a(g646
g466
I33
tp4454
a(g466
g646
I33
tp4455
a(g646
g421
I36
tp4456
a(g421
g646
I36
tp4457
a(g646
g201
I39
tp4458
a(g201
g646
I39
tp4459
a(g646
g649
I10
tp4460
a(g649
g646
I10
tp4461
a(g646
g633
I26
tp4462
a(g633
g646
I26
tp4463
a(g646
g457
I3
tp4464
a(g457
g646
I3
tp4465
a(g646
g463
I23
tp4466
a(g463
g646
I23
tp4467
a(g646
g652
I11
tp4468
a(g652
g646
I11
tp4469
a(g646
g598
I26
tp4470
a(g598
g646
I26
tp4471
a(g646
g448
I11
tp4472
a(g448
g646
I11
tp4473
a(g646
g424
I14
tp4474
a(g424
g646
I14
tp4475
a(g646
g602
I33
tp4476
a(g602
g646
I33
tp4477
a(g646
g460
I6
tp4478
a(g460
g646
I6
tp4479
a(g646
g642
I23
tp4480
a(g642
g646
I23
tp4481
a(g646
g420
I37
tp4482
a(g420
g646
I37
tp4483
a(g457
g636
I21
tp4484
a(g636
g457
I21
tp4485
a(g457
g381
I34
tp4486
a(g381
g457
I34
tp4487
a(g457
g451
I5
tp4488
a(g451
g457
I5
tp4489
a(g457
g405
I16
tp4490
a(g405
g457
I16
tp4491
a(g457
g401
I14
tp4492
a(g401
g457
I14
tp4493
a(g457
g122
I24
tp4494
a(g122
g457
I24
tp4495
a(g457
g408
I19
tp4496
a(g408
g457
I19
tp4497
a(g457
g645
I9
tp4498
a(g645
g457
I9
tp4499
a(g457
g197
I37
tp4500
a(g197
g457
I37
tp4501
a(g457
g382
I33
tp4502
a(g382
g457
I33
tp4503
a(g457
g360
I30
tp4504
a(g360
g457
I30
tp4505
a(g457
g469
I31
tp4506
a(g469
g457
I31
tp4507
a(g457
g411
I24
tp4508
a(g411
g457
I24
tp4509
a(g457
g466
I30
tp4510
a(g466
g457
I30
tp4511
a(g457
g421
I33
tp4512
a(g421
g457
I33
tp4513
a(g457
g649
I12
tp4514
a(g649
g457
I12
tp4515
a(g457
g633
I25
tp4516
a(g633
g457
I25
tp4517
a(g457
g646
I3
tp4518
a(g646
g457
I3
tp4519
a(g457
g463
I20
tp4520
a(g463
g457
I20
tp4521
a(g457
g652
I14
tp4522
a(g652
g457
I14
tp4523
a(g457
g598
I29
tp4524
a(g598
g457
I29
tp4525
a(g457
g448
I13
tp4526
a(g448
g457
I13
tp4527
a(g457
g385
I39
tp4528
a(g385
g457
I39
tp4529
a(g457
g424
I12
tp4530
a(g424
g457
I12
tp4531
a(g457
g602
I36
tp4532
a(g602
g457
I36
tp4533
a(g457
g460
I3
tp4534
a(g460
g457
I3
tp4535
a(g457
g642
I26
tp4536
a(g642
g457
I26
tp4537
a(g457
g420
I35
tp4538
a(g420
g457
I35
tp4539
a(g245
g38
I19
tp4540
a(g38
g245
I19
tp4541
a(g245
g251
I10
tp4542
a(g251
g245
I10
tp4543
a(g245
g266
I38
tp4544
a(g266
g245
I38
tp4545
a(g245
g257
I23
tp4546
a(g257
g245
I23
tp4547
a(g245
g242
I14
tp4548
a(g242
g245
I14
tp4549
a(g245
g254
I13
tp4550
a(g254
g245
I13
tp4551
a(g245
g263
I33
tp4552
a(g263
g245
I33
tp4553
a(g245
g32
I17
tp4554
a(g32
g245
I17
tp4555
a(g245
g248
I4
tp4556
a(g248
g245
I4
tp4557
a(g245
g241
I9
tp4558
a(g241
g245
I9
tp4559
a(g245
g35
I13
tp4560
a(g35
g245
I13
tp4561
a(g245
g260
I28
tp4562
a(g260
g245
I28
tp4563
a(g605
g284
I38
tp4564
a(g284
g605
I38
tp4565
a(g605
g53
I27
tp4566
a(g53
g605
I27
tp4567
a(g605
g514
I16
tp4568
a(g514
g605
I16
tp4569
a(g605
g618
I9
tp4570
a(g618
g605
I9
tp4571
a(g605
g56
I16
tp4572
a(g56
g605
I16
tp4573
a(g605
g523
I34
tp4574
a(g523
g605
I34
tp4575
a(g605
g517
I18
tp4576
a(g517
g605
I18
tp4577
a(g605
g612
I6
tp4578
a(g612
g605
I6
tp4579
a(g605
g511
I10
tp4580
a(g511
g605
I10
tp4581
a(g605
g507
I8
tp4582
a(g507
g605
I8
tp4583
a(g605
g59
I36
tp4584
a(g59
g605
I36
tp4585
a(g605
g615
I8
tp4586
a(g615
g605
I8
tp4587
a(g605
g296
I18
tp4588
a(g296
g605
I18
tp4589
a(g605
g606
I5
tp4590
a(g606
g605
I5
tp4591
a(g605
g508
I6
tp4592
a(g508
g605
I6
tp4593
a(g605
g627
I19
tp4594
a(g627
g605
I19
tp4595
a(g605
g293
I14
tp4596
a(g293
g605
I14
tp4597
a(g605
g526
I38
tp4598
a(g526
g605
I38
tp4599
a(g605
g621
I13
tp4600
a(g621
g605
I13
tp4601
a(g605
g609
I4
tp4602
a(g609
g605
I4
tp4603
a(g605
g287
I8
tp4604
a(g287
g605
I8
tp4605
a(g605
g624
I15
tp4606
a(g624
g605
I15
tp4607
a(g605
g520
I20
tp4608
a(g520
g605
I20
tp4609
a(g296
g299
I30
tp4610
a(g299
g296
I30
tp4611
a(g296
g514
I12
tp4612
a(g514
g296
I12
tp4613
a(g296
g618
I24
tp4614
a(g618
g296
I24
tp4615
a(g296
g56
I17
tp4616
a(g56
g296
I17
tp4617
a(g296
g523
I19
tp4618
a(g523
g296
I19
tp4619
a(g296
g517
I11
tp4620
a(g517
g296
I11
tp4621
a(g296
g612
I23
tp4622
a(g612
g296
I23
tp4623
a(g296
g511
I16
tp4624
a(g511
g296
I16
tp4625
a(g296
g507
I18
tp4626
a(g507
g296
I18
tp4627
a(g296
g59
I18
tp4628
a(g59
g296
I18
tp4629
a(g296
g615
I24
tp4630
a(g615
g296
I24
tp4631
a(g296
g605
I18
tp4632
a(g605
g296
I18
tp4633
a(g296
g606
I16
tp4634
a(g606
g296
I16
tp4635
a(g296
g508
I20
tp4636
a(g508
g296
I20
tp4637
a(g296
g627
I31
tp4638
a(g627
g296
I31
tp4639
a(g296
g293
I4
tp4640
a(g293
g296
I4
tp4641
a(g296
g526
I23
tp4642
a(g526
g296
I23
tp4643
a(g296
g621
I25
tp4644
a(g621
g296
I25
tp4645
a(g296
g609
I21
tp4646
a(g609
g296
I21
tp4647
a(g296
g287
I24
tp4648
a(g287
g296
I24
tp4649
a(g296
g624
I27
tp4650
a(g624
g296
I27
tp4651
a(g296
g529
I28
tp4652
a(g529
g296
I28
tp4653
a(g296
g520
I10
tp4654
a(g520
g296
I10
tp4655
a(g170
g160
I35
tp4656
a(g160
g170
I35
tp4657
a(g170
g197
I39
tp4658
a(g197
g170
I39
tp4659
a(g170
g112
I27
tp4660
a(g112
g170
I27
tp4661
a(g170
g439
I28
tp4662
a(g439
g170
I28
tp4663
a(g170
g139
I25
tp4664
a(g139
g170
I25
tp4665
a(g170
g154
I35
tp4666
a(g154
g170
I35
tp4667
a(g170
g207
I30
tp4668
a(g207
g170
I30
tp4669
a(g170
g204
I33
tp4670
a(g204
g170
I33
tp4671
a(g170
g173
I13
tp4672
a(g173
g170
I13
tp4673
a(g170
g442
I28
tp4674
a(g442
g170
I28
tp4675
a(g170
g176
I30
tp4676
a(g176
g170
I30
tp4677
a(g170
g445
I31
tp4678
a(g445
g170
I31
tp4679
a(g170
g201
I35
tp4680
a(g201
g170
I35
tp4681
a(g170
g163
I19
tp4682
a(g163
g170
I19
tp4683
a(g170
g142
I21
tp4684
a(g142
g170
I21
tp4685
a(g170
g435
I29
tp4686
a(g435
g170
I29
tp4687
a(g170
g164
I22
tp4688
a(g164
g170
I22
tp4689
a(g170
g157
I37
tp4690
a(g157
g170
I37
tp4691
a(g170
g602
I38
tp4692
a(g602
g170
I38
tp4693
a(g170
g135
I28
tp4694
a(g135
g170
I28
tp4695
a(g170
g115
I24
tp4696
a(g115
g170
I24
tp4697
a(g170
g167
I15
tp4698
a(g167
g170
I15
tp4699
a(g170
g108
I29
tp4700
a(g108
g170
I29
tp4701
a(g170
g179
I33
tp4702
a(g179
g170
I33
tp4703
a(g170
g151
I32
tp4704
a(g151
g170
I32
tp4705
a(g211
g226
I14
tp4706
a(g226
g211
I14
tp4707
a(g211
g229
I17
tp4708
a(g229
g211
I17
tp4709
a(g211
g232
I24
tp4710
a(g232
g211
I24
tp4711
a(g211
g62
I38
tp4712
a(g62
g211
I38
tp4713
a(g211
g214
I6
tp4714
a(g214
g211
I6
tp4715
a(g211
g217
I8
tp4716
a(g217
g211
I8
tp4717
a(g211
g336
I35
tp4718
a(g336
g211
I35
tp4719
a(g211
g220
I10
tp4720
a(g220
g211
I10
tp4721
a(g211
g223
I12
tp4722
a(g223
g211
I12
tp4723
a(g211
g210
I3
tp4724
a(g210
g211
I3
tp4725
a(g486
g483
I36
tp4726
a(g483
g486
I36
tp4727
a(g486
g495
I7
tp4728
a(g495
g486
I7
tp4729
a(g486
g374
I23
tp4730
a(g374
g486
I23
tp4731
a(g163
g160
I20
tp4732
a(g160
g163
I20
tp4733
a(g163
g197
I20
tp4734
a(g197
g163
I20
tp4735
a(g163
g112
I10
tp4736
a(g112
g163
I10
tp4737
a(g163
g439
I26
tp4738
a(g439
g163
I26
tp4739
a(g163
g139
I15
tp4740
a(g139
g163
I15
tp4741
a(g163
g154
I18
tp4742
a(g154
g163
I18
tp4743
a(g163
g207
I11
tp4744
a(g207
g163
I11
tp4745
a(g163
g204
I14
tp4746
a(g204
g163
I14
tp4747
a(g163
g173
I32
tp4748
a(g173
g163
I32
tp4749
a(g163
g442
I25
tp4750
a(g442
g163
I25
tp4751
a(g163
g445
I24
tp4752
a(g445
g163
I24
tp4753
a(g163
g201
I16
tp4754
a(g201
g163
I16
tp4755
a(g163
g170
I19
tp4756
a(g170
g163
I19
tp4757
a(g163
g142
I6
tp4758
a(g142
g163
I6
tp4759
a(g163
g435
I26
tp4760
a(g435
g163
I26
tp4761
a(g163
g598
I27
tp4762
a(g598
g163
I27
tp4763
a(g163
g164
I3
tp4764
a(g164
g163
I3
tp4765
a(g163
g157
I21
tp4766
a(g157
g163
I21
tp4767
a(g163
g602
I21
tp4768
a(g602
g163
I21
tp4769
a(g163
g135
I20
tp4770
a(g135
g163
I20
tp4771
a(g163
g115
I7
tp4772
a(g115
g163
I7
tp4773
a(g163
g167
I3
tp4774
a(g167
g163
I3
tp4775
a(g163
g108
I12
tp4776
a(g108
g163
I12
tp4777
a(g163
g642
I30
tp4778
a(g642
g163
I30
tp4779
a(g163
g151
I14
tp4780
a(g151
g163
I14
tp4781
a(g486
g498
I10
tp4782
a(g498
g486
I10
tp4783
a(g486
g504
I14
tp4784
a(g504
g486
I14
tp4785
a(g486
g492
I2
tp4786
a(g492
g486
I2
tp4787
a(g486
g489
I1
tp4788
a(g489
g486
I1
tp4789
a(g486
g371
I24
tp4790
a(g371
g486
I24
tp4791
a(g486
g501
I13
tp4792
a(g501
g486
I13
tp4793
a(g311
g483
I34
tp4794
a(g483
g311
I34
tp4795
a(g311
g330
I30
tp4796
a(g330
g311
I30
tp4797
a(g311
g480
I26
tp4798
a(g480
g311
I26
tp4799
a(g311
g132
I19
tp4800
a(g132
g311
I19
tp4801
a(g311
g538
I10
tp4802
a(g538
g311
I10
tp4803
a(g311
g327
I19
tp4804
a(g327
g311
I19
tp4805
a(g311
g125
I7
tp4806
a(g125
g311
I7
tp4807
a(g311
g308
I15
tp4808
a(g308
g311
I15
tp4809
a(g311
g326
I24
tp4810
a(g326
g311
I24
tp4811
a(g311
g314
I4
tp4812
a(g314
g311
I4
tp4813
a(g311
g68
I11
tp4814
a(g68
g311
I11
tp4815
a(g311
g476
I23
tp4816
a(g476
g311
I23
tp4817
a(g311
g129
I14
tp4818
a(g129
g311
I14
tp4819
a(g311
g541
I19
tp4820
a(g541
g311
I19
tp4821
a(g374
g495
I20
tp4822
a(g495
g374
I20
tp4823
a(g374
g486
I23
tp4824
a(g486
g374
I23
tp4825
a(g374
g498
I21
tp4826
a(g498
g374
I21
tp4827
a(g374
g504
I22
tp4828
a(g504
g374
I22
tp4829
a(g374
g492
I21
tp4830
a(g492
g374
I21
tp4831
a(g374
g489
I21
tp4832
a(g489
g374
I21
tp4833
a(g374
g371
I2
tp4834
a(g371
g374
I2
tp4835
a(g374
g501
I22
tp4836
a(g501
g374
I22
tp4837
a(g606
g284
I39
tp4838
a(g284
g606
I39
tp4839
a(g606
g53
I26
tp4840
a(g53
g606
I26
tp4841
a(g606
g514
I18
tp4842
a(g514
g606
I18
tp4843
a(g606
g618
I15
tp4844
a(g618
g606
I15
tp4845
a(g606
g56
I10
tp4846
a(g56
g606
I10
tp4847
a(g606
g523
I34
tp4848
a(g523
g606
I34
tp4849
a(g606
g517
I19
tp4850
a(g517
g606
I19
tp4851
a(g606
g612
I12
tp4852
a(g612
g606
I12
tp4853
a(g606
g511
I14
tp4854
a(g511
g606
I14
tp4855
a(g606
g507
I12
tp4856
a(g507
g606
I12
tp4857
a(g606
g59
I33
tp4858
a(g59
g606
I33
tp4859
a(g606
g615
I14
tp4860
a(g615
g606
I14
tp4861
a(g606
g605
I5
tp4862
a(g605
g606
I5
tp4863
a(g606
g296
I16
tp4864
a(g296
g606
I16
tp4865
a(g606
g508
I12
tp4866
a(g508
g606
I12
tp4867
a(g606
g627
I25
tp4868
a(g627
g606
I25
tp4869
a(g606
g293
I11
tp4870
a(g293
g606
I11
tp4871
a(g606
g526
I38
tp4872
a(g526
g606
I38
tp4873
a(g606
g621
I18
tp4874
a(g621
g606
I18
tp4875
a(g606
g609
I10
tp4876
a(g609
g606
I10
tp4877
a(g606
g287
I7
tp4878
a(g287
g606
I7
tp4879
a(g606
g624
I20
tp4880
a(g624
g606
I20
tp4881
a(g606
g520
I21
tp4882
a(g520
g606
I21
tp4883
a(g80
g562
I39
tp4884
a(g562
g80
I39
tp4885
a(g80
g553
I20
tp4886
a(g553
g80
I20
tp4887
a(g80
g323
I9
tp4888
a(g323
g80
I9
tp4889
a(g80
g559
I30
tp4890
a(g559
g80
I30
tp4891
a(g80
g320
I35
tp4892
a(g320
g80
I35
tp4893
a(g80
g556
I23
tp4894
a(g556
g80
I23
tp4895
a(g80
g83
I32
tp4896
a(g83
g80
I32
tp4897
a(g80
g77
I20
tp4898
a(g77
g80
I20
tp4899
a(g377
g365
I3
tp4900
a(g365
g377
I3
tp4901
a(g377
g397
I1
tp4902
a(g397
g377
I1
tp4903
a(g377
g339
I23
tp4904
a(g339
g377
I23
tp4905
a(g377
g381
I32
tp4906
a(g381
g377
I32
tp4907
a(g377
g352
I6
tp4908
a(g352
g377
I6
tp4909
a(g377
g349
I9
tp4910
a(g349
g377
I9
tp4911
a(g377
g394
I8
tp4912
a(g394
g377
I8
tp4913
a(g377
g343
I21
tp4914
a(g343
g377
I21
tp4915
a(g377
g398
I3
tp4916
a(g398
g377
I3
tp4917
a(g377
g340
I24
tp4918
a(g340
g377
I24
tp4919
a(g377
g391
I21
tp4920
a(g391
g377
I21
tp4921
a(g377
g382
I36
tp4922
a(g382
g377
I36
tp4923
a(g377
g421
I36
tp4924
a(g421
g377
I36
tp4925
a(g377
g679
I33
tp4926
a(g679
g377
I33
tp4927
a(g377
g357
I1
tp4928
a(g357
g377
I1
tp4929
a(g377
g378
I2
tp4930
a(g378
g377
I2
tp4931
a(g377
g385
I28
tp4932
a(g385
g377
I28
tp4933
a(g377
g346
I9
tp4934
a(g346
g377
I9
tp4935
a(g377
g414
I30
tp4936
a(g414
g377
I30
tp4937
a(g377
g388
I22
tp4938
a(g388
g377
I22
tp4939
a(g377
g420
I31
tp4940
a(g420
g377
I31
tp4941
a(g142
g160
I24
tp4942
a(g160
g142
I24
tp4943
a(g142
g197
I18
tp4944
a(g197
g142
I18
tp4945
a(g142
g112
I5
tp4946
a(g112
g142
I5
tp4947
a(g142
g439
I20
tp4948
a(g439
g142
I20
tp4949
a(g142
g139
I10
tp4950
a(g139
g142
I10
tp4951
a(g142
g154
I21
tp4952
a(g154
g142
I21
tp4953
a(g142
g207
I13
tp4954
a(g207
g142
I13
tp4955
a(g142
g204
I14
tp4956
a(g204
g142
I14
tp4957
a(g142
g173
I34
tp4958
a(g173
g142
I34
tp4959
a(g142
g442
I20
tp4960
a(g442
g142
I20
tp4961
a(g142
g445
I19
tp4962
a(g445
g142
I19
tp4963
a(g142
g201
I15
tp4964
a(g201
g142
I15
tp4965
a(g142
g170
I21
tp4966
a(g170
g142
I21
tp4967
a(g142
g163
I6
tp4968
a(g163
g142
I6
tp4969
a(g142
g435
I21
tp4970
a(g435
g142
I21
tp4971
a(g142
g598
I22
tp4972
a(g598
g142
I22
tp4973
a(g142
g164
I3
tp4974
a(g164
g142
I3
tp4975
a(g142
g448
I39
tp4976
a(g448
g142
I39
tp4977
a(g142
g157
I25
tp4978
a(g157
g142
I25
tp4979
a(g142
g602
I16
tp4980
a(g602
g142
I16
tp4981
a(g142
g135
I15
tp4982
a(g135
g142
I15
tp4983
a(g142
g115
I3
tp4984
a(g115
g142
I3
tp4985
a(g142
g167
I8
tp4986
a(g167
g142
I8
tp4987
a(g142
g108
I7
tp4988
a(g108
g142
I7
tp4989
a(g142
g642
I26
tp4990
a(g642
g142
I26
tp4991
a(g142
g151
I17
tp4992
a(g151
g142
I17
tp4993
a(g182
g173
I27
tp4994
a(g173
g182
I27
tp4995
a(g182
g176
I10
tp4996
a(g176
g182
I10
tp4997
a(g182
g191
I6
tp4998
a(g191
g182
I6
tp4999
a(g182
g188
I4
tp5000
a(g188
g182
I4
tp5001
a(g182
g194
I13
tp5002
a(g194
g182
I13
tp5003
a(g182
g179
I7
tp5004
a(g179
g182
I7
tp5005
a(g182
g185
I2
tp5006
a(g185
g182
I2
tp5007
a(g589
g577
I22
tp5008
a(g577
g589
I22
tp5009
a(g589
g592
I11
tp5010
a(g592
g589
I11
tp5011
a(g589
g586
I9
tp5012
a(g586
g589
I9
tp5013
a(g589
g583
I11
tp5014
a(g583
g589
I11
tp5015
a(g589
g571
I36
tp5016
a(g571
g589
I36
tp5017
a(g589
g595
I28
tp5018
a(g595
g589
I28
tp5019
a(g589
g580
I15
tp5020
a(g580
g589
I15
tp5021
a(g589
g574
I32
tp5022
a(g574
g589
I32
tp5023
a(g508
g53
I32
tp5024
a(g53
g508
I32
tp5025
a(g508
g514
I14
tp5026
a(g514
g508
I14
tp5027
a(g508
g618
I3
tp5028
a(g618
g508
I3
tp5029
a(g508
g56
I22
tp5030
a(g56
g508
I22
tp5031
a(g508
g523
I33
tp5032
a(g523
g508
I33
tp5033
a(g508
g517
I16
tp5034
a(g517
g508
I16
tp5035
a(g508
g612
I2
tp5036
a(g612
g508
I2
tp5037
a(g508
g511
I7
tp5038
a(g511
g508
I7
tp5039
a(g508
g507
I3
tp5040
a(g507
g508
I3
tp5041
a(g508
g59
I39
tp5042
a(g59
g508
I39
tp5043
a(g508
g615
I3
tp5044
a(g615
g508
I3
tp5045
a(g508
g605
I6
tp5046
a(g605
g508
I6
tp5047
a(g508
g296
I20
tp5048
a(g296
g508
I20
tp5049
a(g508
g606
I12
tp5050
a(g606
g508
I12
tp5051
a(g508
g627
I13
tp5052
a(g627
g508
I13
tp5053
a(g508
g293
I17
tp5054
a(g293
g508
I17
tp5055
a(g508
g526
I37
tp5056
a(g526
g508
I37
tp5057
a(g508
g621
I6
tp5058
a(g621
g508
I6
tp5059
a(g508
g609
I2
tp5060
a(g609
g508
I2
tp5061
a(g508
g287
I13
tp5062
a(g287
g508
I13
tp5063
a(g508
g630
I35
tp5064
a(g630
g508
I35
tp5065
a(g508
g624
I8
tp5066
a(g624
g508
I8
tp5067
a(g508
g414
I37
tp5068
a(g414
g508
I37
tp5069
a(g508
g520
I19
tp5070
a(g520
g508
I19
tp5071
a(g627
g514
I20
tp5072
a(g514
g627
I20
tp5073
a(g627
g618
I10
tp5074
a(g618
g627
I10
tp5075
a(g627
g56
I36
tp5076
a(g56
g627
I36
tp5077
a(g627
g523
I37
tp5078
a(g523
g627
I37
tp5079
a(g627
g517
I22
tp5080
a(g517
g627
I22
tp5081
a(g627
g612
I13
tp5082
a(g612
g627
I13
tp5083
a(g627
g511
I15
tp5084
a(g511
g627
I15
tp5085
a(g627
g507
I13
tp5086
a(g507
g627
I13
tp5087
a(g627
g615
I11
tp5088
a(g615
g627
I11
tp5089
a(g627
g605
I19
tp5090
a(g605
g627
I19
tp5091
a(g627
g296
I31
tp5092
a(g296
g627
I31
tp5093
a(g627
g606
I25
tp5094
a(g606
g627
I25
tp5095
a(g627
g508
I13
tp5096
a(g508
g627
I13
tp5097
a(g627
g293
I28
tp5098
a(g293
g627
I28
tp5099
a(g627
g621
I6
tp5100
a(g621
g627
I6
tp5101
a(g627
g609
I15
tp5102
a(g609
g627
I15
tp5103
a(g627
g287
I26
tp5104
a(g287
g627
I26
tp5105
a(g627
g630
I22
tp5106
a(g630
g627
I22
tp5107
a(g627
g624
I4
tp5108
a(g624
g627
I4
tp5109
a(g627
g414
I24
tp5110
a(g414
g627
I24
tp5111
a(g627
g520
I25
tp5112
a(g520
g627
I25
tp5113
a(g327
g330
I13
tp5114
a(g330
g327
I13
tp5115
a(g327
g480
I39
tp5116
a(g480
g327
I39
tp5117
a(g327
g132
I39
tp5118
a(g132
g327
I39
tp5119
a(g327
g538
I22
tp5120
a(g538
g327
I22
tp5121
a(g327
g235
I36
tp5122
a(g235
g327
I36
tp5123
a(g327
g62
I31
tp5124
a(g62
g327
I31
tp5125
a(g327
g333
I25
tp5126
a(g333
g327
I25
tp5127
a(g327
g336
I32
tp5128
a(g336
g327
I32
tp5129
a(g327
g311
I19
tp5130
a(g311
g327
I19
tp5131
a(g327
g125
I27
tp5132
a(g125
g327
I27
tp5133
a(g327
g532
I33
tp5134
a(g532
g327
I33
tp5135
a(g327
g308
I6
tp5136
a(g308
g327
I6
tp5137
a(g327
g326
I7
tp5138
a(g326
g327
I7
tp5139
a(g327
g314
I24
tp5140
a(g314
g327
I24
tp5141
a(g327
g68
I19
tp5142
a(g68
g327
I19
tp5143
a(g327
g476
I38
tp5144
a(g476
g327
I38
tp5145
a(g327
g302
I31
tp5146
a(g302
g327
I31
tp5147
a(g327
g129
I34
tp5148
a(g129
g327
I34
tp5149
a(g327
g541
I36
tp5150
a(g541
g327
I36
tp5151
a(g327
g535
I21
tp5152
a(g535
g327
I21
tp5153
a(g293
g299
I35
tp5154
a(g299
g293
I35
tp5155
a(g293
g53
I37
tp5156
a(g53
g293
I37
tp5157
a(g293
g514
I12
tp5158
a(g514
g293
I12
tp5159
a(g293
g618
I21
tp5160
a(g618
g293
I21
tp5161
a(g293
g56
I13
tp5162
a(g56
g293
I13
tp5163
a(g293
g523
I23
tp5164
a(g523
g293
I23
tp5165
a(g293
g517
I12
tp5166
a(g526
g299
I14
tp5167
a(g299
g526
I14
tp5168
a(g517
g293
I12
tp5169
a(g293
g612
I19
tp5170
a(g612
g293
I19
tp5171
a(g293
g511
I13
tp5172
a(g511
g293
I13
tp5173
a(g293
g507
I15
tp5174
a(g507
g293
I15
tp5175
a(g293
g59
I22
tp5176
a(g59
g293
I22
tp5177
a(g293
g615
I20
tp5178
a(g615
g293
I20
tp5179
a(g293
g605
I14
tp5180
a(g605
g293
I14
tp5181
a(g293
g296
I4
tp5182
a(g296
g293
I4
tp5183
a(g293
g606
I11
tp5184
a(g606
g293
I11
tp5185
a(g293
g508
I17
tp5186
a(g508
g293
I17
tp5187
a(g293
g627
I28
tp5188
a(g627
g293
I28
tp5189
a(g293
g526
I27
tp5190
a(g526
g293
I27
tp5191
a(g293
g621
I22
tp5192
a(g621
g293
I22
tp5193
a(g293
g609
I17
tp5194
a(g609
g293
I17
tp5195
a(g293
g287
I19
tp5196
a(g287
g293
I19
tp5197
a(g293
g624
I24
tp5198
a(g624
g293
I24
tp5199
a(g293
g529
I33
tp5200
a(g529
g293
I33
tp5201
a(g293
g520
I12
tp5202
a(g520
g293
I12
tp5203
a(g526
g514
I23
tp5204
a(g514
g526
I23
tp5205
a(g526
g235
I30
tp5206
a(g235
g526
I30
tp5207
a(g526
g523
I4
tp5208
a(g523
g526
I4
tp5209
a(g526
g517
I21
tp5210
a(g517
g526
I21
tp5211
a(g526
g62
I38
tp5212
a(g62
g526
I38
tp5213
a(g526
g511
I30
tp5214
a(g511
g526
I30
tp5215
a(g526
g507
I34
tp5216
a(g507
g526
I34
tp5217
a(g526
g59
I22
tp5218
a(g59
g526
I22
tp5219
a(g526
g605
I38
tp5220
a(g605
g526
I38
tp5221
a(g526
g296
I23
tp5222
a(g296
g526
I23
tp5223
a(g526
g606
I38
tp5224
a(g606
g526
I38
tp5225
a(g526
g508
I37
tp5226
a(g508
g526
I37
tp5227
a(g526
g293
I27
tp5228
a(g293
g526
I27
tp5229
a(g526
g621
I39
tp5230
a(g621
g526
I39
tp5231
a(g526
g609
I39
tp5232
a(g609
g526
I39
tp5233
a(g526
g238
I26
tp5234
a(g238
g526
I26
tp5235
a(g526
g532
I26
tp5236
a(g532
g526
I26
tp5237
a(g526
g624
I39
tp5238
a(g624
g526
I39
tp5239
a(g526
g302
I30
tp5240
a(g302
g526
I30
tp5241
a(g526
g529
I6
tp5242
a(g529
g526
I6
tp5243
a(g526
g520
I18
tp5244
a(g520
g526
I18
tp5245
a(g526
g535
I39
tp5246
a(g535
g526
I39
tp5247
a(g463
g636
I38
tp5248
a(g636
g463
I38
tp5249
a(g463
g339
I36
tp5250
a(g339
g463
I36
tp5251
a(g463
g381
I35
tp5252
a(g381
g463
I35
tp5253
a(g463
g451
I24
tp5254
a(g451
g463
I24
tp5255
a(g463
g405
I28
tp5256
a(g405
g463
I28
tp5257
a(g463
g401
I25
tp5258
a(g401
g463
I25
tp5259
a(g463
g122
I4
tp5260
a(g122
g463
I4
tp5261
a(g463
g408
I30
tp5262
a(g408
g463
I30
tp5263
a(g463
g645
I29
tp5264
a(g645
g463
I29
tp5265
a(g463
g343
I38
tp5266
a(g343
g463
I38
tp5267
a(g463
g340
I37
tp5268
a(g340
g463
I37
tp5269
a(g463
g391
I38
tp5270
a(g391
g463
I38
tp5271
a(g463
g382
I38
tp5272
a(g382
g463
I38
tp5273
a(g463
g360
I18
tp5274
a(g360
g463
I18
tp5275
a(g463
g469
I11
tp5276
a(g469
g463
I11
tp5277
a(g463
g411
I34
tp5278
a(g411
g463
I34
tp5279
a(g463
g466
I10
tp5280
a(g466
g463
I10
tp5281
a(g463
g421
I38
tp5282
a(g421
g463
I38
tp5283
a(g463
g649
I33
tp5284
a(g649
g463
I33
tp5285
a(g463
g646
I23
tp5286
a(g646
g463
I23
tp5287
a(g463
g457
I20
tp5288
a(g457
g463
I20
tp5289
a(g463
g652
I34
tp5290
a(g652
g463
I34
tp5291
a(g463
g448
I27
tp5292
a(g448
g463
I27
tp5293
a(g463
g424
I23
tp5294
a(g424
g463
I23
tp5295
a(g463
g388
I38
tp5296
a(g388
g463
I38
tp5297
a(g463
g460
I17
tp5298
a(g460
g463
I17
tp5299
a(g463
g420
I34
tp5300
a(g420
g463
I34
tp5301
a(g621
g53
I37
tp5302
a(g53
g621
I37
tp5303
a(g621
g514
I16
tp5304
a(g514
g621
I16
tp5305
a(g621
g618
I3
tp5306
a(g618
g621
I3
tp5307
a(g621
g56
I29
tp5308
a(g56
g621
I29
tp5309
a(g621
g523
I35
tp5310
a(g523
g621
I35
tp5311
a(g621
g517
I18
tp5312
a(g517
g621
I18
tp5313
a(g621
g612
I6
tp5314
a(g612
g621
I6
tp5315
a(g621
g511
I9
tp5316
a(g511
g621
I9
tp5317
a(g621
g507
I7
tp5318
a(g507
g621
I7
tp5319
a(g621
g615
I4
tp5320
a(g615
g621
I4
tp5321
a(g621
g605
I13
tp5322
a(g605
g621
I13
tp5323
a(g621
g296
I25
tp5324
a(g296
g621
I25
tp5325
a(g621
g606
I18
tp5326
a(g606
g621
I18
tp5327
a(g621
g508
I6
tp5328
a(g508
g621
I6
tp5329
a(g621
g627
I6
tp5330
a(g627
g621
I6
tp5331
a(g621
g293
I22
tp5332
a(g293
g621
I22
tp5333
a(g621
g526
I39
tp5334
a(g526
g621
I39
tp5335
a(g621
g609
I8
tp5336
a(g609
g621
I8
tp5337
a(g621
g287
I19
tp5338
a(g287
g621
I19
tp5339
a(g621
g630
I29
tp5340
a(g630
g621
I29
tp5341
a(g621
g624
I1
tp5342
a(g624
g621
I1
tp5343
a(g621
g414
I30
tp5344
a(g414
g621
I30
tp5345
a(g621
g520
I21
tp5346
a(g520
g621
I21
tp5347
a(g435
g197
I33
tp5348
a(g197
g435
I33
tp5349
a(g435
g112
I22
tp5350
a(g112
g435
I22
tp5351
a(g435
g439
I0
tp5352
a(g439
g435
I0
tp5353
a(g435
g139
I12
tp5354
a(g139
g435
I12
tp5355
a(g435
g207
I34
tp5356
a(g207
g435
I34
tp5357
a(g435
g204
I34
tp5358
a(g204
g435
I34
tp5359
a(g435
g173
I37
tp5360
a(g173
g435
I37
tp5361
a(g435
g442
I1
tp5362
a(g442
g435
I1
tp5363
a(g435
g445
I6
tp5364
a(g445
g435
I6
tp5365
a(g435
g428
I38
tp5366
a(g428
g435
I38
tp5367
a(g435
g201
I33
tp5368
a(g201
g435
I33
tp5369
a(g435
g170
I29
tp5370
a(g170
g435
I29
tp5371
a(g435
g163
I26
tp5372
a(g163
g435
I26
tp5373
a(g435
g142
I21
tp5374
a(g142
g435
I21
tp5375
a(g435
g598
I31
tp5376
a(g598
g435
I31
tp5377
a(g435
g164
I25
tp5378
a(g164
g435
I25
tp5379
a(g435
g432
I29
tp5380
a(g432
g435
I29
tp5381
a(g435
g436
I24
tp5382
a(g436
g435
I24
tp5383
a(g435
g602
I24
tp5384
a(g602
g435
I24
tp5385
a(g435
g135
I7
tp5386
a(g135
g435
I7
tp5387
a(g435
g115
I23
tp5388
a(g115
g435
I23
tp5389
a(g435
g167
I26
tp5390
a(g167
g435
I26
tp5391
a(g435
g108
I22
tp5392
a(g108
g435
I22
tp5393
a(g435
g642
I35
tp5394
a(g642
g435
I35
tp5395
a(g435
g151
I38
tp5396
a(g151
g435
I38
tp5397
a(g652
g636
I17
tp5398
a(g636
g652
I17
tp5399
a(g652
g451
I11
tp5400
a(g451
g652
I11
tp5401
a(g652
g405
I21
tp5402
a(g405
g652
I21
tp5403
a(g652
g401
I20
tp5404
a(g401
g652
I20
tp5405
a(g652
g122
I38
tp5406
a(g122
g652
I38
tp5407
a(g652
g408
I23
tp5408
a(g408
g652
I23
tp5409
a(g652
g645
I5
tp5410
a(g645
g652
I5
tp5411
a(g652
g197
I28
tp5412
a(g197
g652
I28
tp5413
a(g652
g382
I38
tp5414
a(g382
g652
I38
tp5415
a(g652
g204
I35
tp5416
a(g204
g652
I35
tp5417
a(g652
g411
I27
tp5418
a(g411
g652
I27
tp5419
a(g652
g421
I38
tp5420
a(g421
g652
I38
tp5421
a(g652
g201
I33
tp5422
a(g201
g652
I33
tp5423
a(g652
g649
I1
tp5424
a(g649
g652
I1
tp5425
a(g652
g633
I22
tp5426
a(g633
g652
I22
tp5427
a(g652
g646
I11
tp5428
a(g646
g652
I11
tp5429
a(g652
g457
I14
tp5430
a(g457
g652
I14
tp5431
a(g652
g463
I34
tp5432
a(g463
g652
I34
tp5433
a(g652
g598
I24
tp5434
a(g598
g652
I24
tp5435
a(g652
g448
I15
tp5436
a(g448
g652
I15
tp5437
a(g652
g424
I20
tp5438
a(g424
g652
I20
tp5439
a(g652
g602
I32
tp5440
a(g602
g652
I32
tp5441
a(g652
g460
I17
tp5442
a(g460
g652
I17
tp5443
a(g652
g108
I39
tp5444
a(g108
g652
I39
tp5445
a(g652
g642
I20
tp5446
a(g642
g652
I20
tp5447
a(g609
g284
I38
tp5448
a(g284
g609
I38
tp5449
a(g609
g53
I30
tp5450
a(g53
g609
I30
tp5451
a(g609
g514
I16
tp5452
a(g514
g609
I16
tp5453
a(g609
g618
I4
tp5454
a(g618
g609
I4
tp5455
a(g609
g56
I21
tp5456
a(g56
g609
I21
tp5457
a(g609
g523
I35
tp5458
a(g523
g609
I35
tp5459
a(g609
g517
I18
tp5460
a(g517
g609
I18
tp5461
a(g609
g612
I2
tp5462
a(g612
g609
I2
tp5463
a(g609
g511
I9
tp5464
a(g511
g609
I9
tp5465
a(g609
g507
I5
tp5466
a(g507
g609
I5
tp5467
a(g609
g615
I3
tp5468
a(g615
g609
I3
tp5469
a(g609
g605
I4
tp5470
a(g605
g609
I4
tp5471
a(g609
g296
I21
tp5472
a(g296
g609
I21
tp5473
a(g609
g606
I10
tp5474
a(g606
g609
I10
tp5475
a(g609
g508
I2
tp5476
a(g508
g609
I2
tp5477
a(g609
g627
I15
tp5478
a(g627
g609
I15
tp5479
a(g609
g293
I17
tp5480
a(g293
g609
I17
tp5481
a(g609
g526
I39
tp5482
a(g526
g609
I39
tp5483
a(g609
g621
I8
tp5484
a(g621
g609
I8
tp5485
a(g609
g287
I11
tp5486
a(g287
g609
I11
tp5487
a(g609
g630
I37
tp5488
a(g630
g609
I37
tp5489
a(g609
g624
I10
tp5490
a(g624
g609
I10
tp5491
a(g609
g414
I39
tp5492
a(g414
g609
I39
tp5493
a(g609
g520
I21
tp5494
a(g520
g609
I21
tp5495
a(g238
g299
I28
tp5496
a(g299
g238
I28
tp5497
a(g238
g235
I33
tp5498
a(g235
g238
I33
tp5499
a(g238
g523
I30
tp5500
a(g523
g238
I30
tp5501
a(g238
g62
I39
tp5502
a(g62
g238
I39
tp5503
a(g238
g679
I32
tp5504
a(g679
g238
I32
tp5505
a(g238
g526
I26
tp5506
a(g526
g238
I26
tp5507
a(g238
g532
I18
tp5508
a(g532
g238
I18
tp5509
a(g238
g302
I27
tp5510
a(g302
g238
I27
tp5511
a(g238
g529
I22
tp5512
a(g529
g238
I22
tp5513
a(g238
g535
I25
tp5514
a(g535
g238
I25
tp5515
a(g254
g38
I8
tp5516
a(g38
g254
I8
tp5517
a(g254
g41
I27
tp5518
a(g41
g254
I27
tp5519
a(g254
g269
I33
tp5520
a(g269
g254
I33
tp5521
a(g254
g251
I2
tp5522
a(g251
g254
I2
tp5523
a(g254
g266
I25
tp5524
a(g266
g254
I25
tp5525
a(g254
g257
I11
tp5526
a(g257
g254
I11
tp5527
a(g254
g242
I27
tp5528
a(g242
g254
I27
tp5529
a(g254
g245
I13
tp5530
a(g245
g254
I13
tp5531
a(g254
g263
I20
tp5532
a(g263
g254
I20
tp5533
a(g254
g32
I27
tp5534
a(g32
g254
I27
tp5535
a(g254
g248
I8
tp5536
a(g248
g254
I8
tp5537
a(g254
g241
I22
tp5538
a(g241
g254
I22
tp5539
a(g254
g35
I22
tp5540
a(g35
g254
I22
tp5541
a(g254
g260
I15
tp5542
a(g260
g254
I15
tp5543
a(g263
g38
I19
tp5544
a(g38
g263
I19
tp5545
a(g263
g41
I11
tp5546
a(g41
g263
I11
tp5547
a(g263
g269
I12
tp5548
a(g269
g263
I12
tp5549
a(g598
g451
I24
tp5550
a(g451
g598
I24
tp5551
a(g598
g160
I32
tp5552
a(g160
g598
I32
tp5553
a(g598
g645
I25
tp5554
a(g645
g598
I25
tp5555
a(g598
g197
I8
tp5556
a(g197
g598
I8
tp5557
a(g598
g112
I17
tp5558
a(g112
g598
I17
tp5559
a(g598
g439
I31
tp5560
a(g439
g598
I31
tp5561
a(g598
g139
I23
tp5562
a(g139
g598
I23
tp5563
a(g598
g154
I26
tp5564
a(g154
g598
I26
tp5565
a(g598
g207
I21
tp5566
a(g207
g598
I21
tp5567
a(g598
g204
I17
tp5568
a(g204
g598
I17
tp5569
a(g598
g442
I30
tp5570
a(g442
g598
I30
tp5571
a(g598
g445
I25
tp5572
a(g445
g598
I25
tp5573
a(g598
g201
I14
tp5574
a(g201
g598
I14
tp5575
a(g598
g649
I24
tp5576
a(g649
g598
I24
tp5577
a(g598
g646
I26
tp5578
a(g646
g598
I26
tp5579
a(g598
g457
I29
tp5580
a(g457
g598
I29
tp5581
a(g598
g163
I27
tp5582
a(g163
g598
I27
tp5583
a(g598
g142
I22
tp5584
a(g142
g598
I22
tp5585
a(g598
g435
I31
tp5586
a(g435
g598
I31
tp5587
a(g598
g652
I24
tp5588
a(g652
g598
I24
tp5589
a(g598
g164
I23
tp5590
a(g164
g598
I23
tp5591
a(g598
g448
I16
tp5592
a(g448
g598
I16
tp5593
a(g598
g157
I31
tp5594
a(g157
g598
I31
tp5595
a(g598
g602
I7
tp5596
a(g602
g598
I7
tp5597
a(g598
g135
I24
tp5598
a(g135
g598
I24
tp5599
a(g598
g460
I31
tp5600
a(g460
g598
I31
tp5601
a(g598
g115
I20
tp5602
a(g115
g598
I20
tp5603
a(g598
g167
I30
tp5604
a(g167
g598
I30
tp5605
a(g598
g108
I15
tp5606
a(g108
g598
I15
tp5607
a(g598
g642
I3
tp5608
a(g642
g598
I3
tp5609
a(g598
g151
I23
tp5610
a(g151
g598
I23
tp5611
a(g263
g251
I23
tp5612
a(g251
g263
I23
tp5613
a(g263
g266
I5
tp5614
a(g266
g263
I5
tp5615
a(g263
g257
I9
tp5616
a(g257
g263
I9
tp5617
a(g263
g272
I28
tp5618
a(g272
g263
I28
tp5619
a(g263
g245
I33
tp5620
a(g245
g263
I33
tp5621
a(g263
g254
I20
tp5622
a(g254
g263
I20
tp5623
a(g263
g248
I28
tp5624
a(g248
g263
I28
tp5625
a(g263
g44
I32
tp5626
a(g44
g263
I32
tp5627
a(g263
g275
I33
tp5628
a(g275
g263
I33
tp5629
a(g263
g260
I5
tp5630
a(g260
g263
I5
tp5631
a(g32
g38
I29
tp5632
a(g38
g32
I29
tp5633
a(g32
g251
I24
tp5634
a(g251
g32
I24
tp5635
a(g32
g257
I37
tp5636
a(g257
g32
I37
tp5637
a(g32
g242
I11
tp5638
a(g242
g32
I11
tp5639
a(g32
g245
I17
tp5640
a(g245
g32
I17
tp5641
a(g32
g254
I27
tp5642
a(g254
g32
I27
tp5643
a(g32
g248
I20
tp5644
a(g248
g32
I20
tp5645
a(g32
g241
I11
tp5646
a(g241
g32
I11
tp5647
a(g32
g35
I4
tp5648
a(g35
g32
I4
tp5649
a(g559
g86
I32
tp5650
a(g86
g559
I32
tp5651
a(g559
g562
I9
tp5652
a(g562
g559
I9
tp5653
a(g559
g577
I36
tp5654
a(g577
g559
I36
tp5655
a(g559
g553
I22
tp5656
a(g553
g559
I22
tp5657
a(g559
g323
I26
tp5658
a(g323
g559
I26
tp5659
a(g559
g89
I34
tp5660
a(g89
g559
I34
tp5661
a(g559
g92
I39
tp5662
a(g92
g559
I39
tp5663
a(g559
g568
I16
tp5664
a(g568
g559
I16
tp5665
a(g559
g571
I22
tp5666
a(g571
g559
I22
tp5667
a(g559
g80
I30
tp5668
a(g80
g559
I30
tp5669
a(g559
g556
I8
tp5670
a(g556
g559
I8
tp5671
a(g559
g83
I26
tp5672
a(g83
g559
I26
tp5673
a(g559
g574
I27
tp5674
a(g574
g559
I27
tp5675
a(g559
g565
I11
tp5676
a(g565
g559
I11
tp5677
a(g320
g553
I32
tp5678
a(g553
g320
I32
tp5679
a(g320
g323
I30
tp5680
a(g323
g320
I30
tp5681
a(g320
g547
I17
tp5682
a(g547
g320
I17
tp5683
a(g320
g544
I35
tp5684
a(g544
g320
I35
tp5685
a(g320
g550
I11
tp5686
a(g550
g320
I11
tp5687
a(g320
g80
I35
tp5688
a(g80
g320
I35
tp5689
a(g320
g77
I16
tp5690
a(g77
g320
I16
tp5691
a(g320
g74
I28
tp5692
a(g74
g320
I28
tp5693
a(g320
g317
I28
tp5694
a(g317
g320
I28
tp5695
a(g125
g483
I36
tp5696
a(g483
g125
I36
tp5697
a(g125
g330
I37
tp5698
a(g330
g125
I37
tp5699
a(g125
g480
I25
tp5700
a(g480
g125
I25
tp5701
a(g125
g132
I11
tp5702
a(g132
g125
I11
tp5703
a(g125
g538
I15
tp5704
a(g538
g125
I15
tp5705
a(g125
g544
I36
tp5706
a(g544
g125
I36
tp5707
a(g125
g311
I7
tp5708
a(g311
g125
I7
tp5709
a(g125
g327
I27
tp5710
a(g327
g125
I27
tp5711
a(g125
g308
I22
tp5712
a(g308
g125
I22
tp5713
a(g125
g326
I31
tp5714
a(g326
g125
I31
tp5715
a(g125
g314
I4
tp5716
a(g314
g125
I4
tp5717
a(g125
g68
I14
tp5718
a(g68
g125
I14
tp5719
a(g125
g476
I21
tp5720
a(g476
g125
I21
tp5721
a(g125
g317
I39
tp5722
a(g317
g125
I39
tp5723
a(g125
g129
I6
tp5724
a(g129
g125
I6
tp5725
a(g125
g541
I16
tp5726
a(g541
g125
I16
tp5727
a(g1
g5
I8
tp5728
a(g5
g1
I8
tp5729
a(g1
g2
I9
tp5730
a(g2
g1
I9
tp5731
a(g1
g8
I21
tp5732
a(g8
g1
I21
tp5733
a(g248
g38
I16
tp5734
a(g38
g248
I16
tp5735
a(g248
g41
I36
tp5736
a(g41
g248
I36
tp5737
a(g248
g251
I6
tp5738
a(g251
g248
I6
tp5739
a(g248
g266
I33
tp5740
a(g266
g248
I33
tp5741
a(g248
g257
I19
tp5742
a(g257
g248
I19
tp5743
a(g248
g242
I19
tp5744
a(g242
g248
I19
tp5745
a(g248
g245
I4
tp5746
a(g245
g248
I4
tp5747
a(g248
g254
I8
tp5748
a(g254
g248
I8
tp5749
a(g248
g263
I28
tp5750
a(g263
g248
I28
tp5751
a(g248
g32
I20
tp5752
a(g32
g248
I20
tp5753
a(g248
g241
I14
tp5754
a(g241
g248
I14
tp5755
a(g248
g35
I16
tp5756
a(g35
g248
I16
tp5757
a(g248
g260
I23
tp5758
a(g260
g248
I23
tp5759
a(g556
g86
I37
tp5760
a(g86
g556
I37
tp5761
a(g556
g562
I18
tp5762
a(g562
g556
I18
tp5763
a(g556
g553
I14
tp5764
a(g553
g556
I14
tp5765
a(g556
g323
I18
tp5766
a(g323
g556
I18
tp5767
a(g556
g89
I39
tp5768
a(g89
g556
I39
tp5769
a(g556
g568
I24
tp5770
a(g568
g556
I24
tp5771
a(g556
g571
I30
tp5772
a(g571
g556
I30
tp5773
a(g556
g80
I23
tp5774
a(g80
g556
I23
tp5775
a(g556
g559
I8
tp5776
a(g559
g556
I8
tp5777
a(g556
g83
I29
tp5778
a(g83
g556
I29
tp5779
a(g556
g77
I38
tp5780
a(g77
g556
I38
tp5781
a(g556
g574
I35
tp5782
a(g574
g556
I35
tp5783
a(g556
g565
I20
tp5784
a(g565
g556
I20
tp5785
a(g532
g299
I19
tp5786
a(g299
g532
I19
tp5787
a(g532
g330
I25
tp5788
a(g330
g532
I25
tp5789
a(g532
g232
I33
tp5790
a(g232
g532
I33
tp5791
a(g532
g235
I16
tp5792
a(g235
g532
I16
tp5793
a(g532
g523
I30
tp5794
a(g523
g532
I30
tp5795
a(g532
g62
I21
tp5796
a(g62
g532
I21
tp5797
a(g532
g59
I37
tp5798
a(g59
g532
I37
tp5799
a(g532
g333
I24
tp5800
a(g333
g532
I24
tp5801
a(g532
g336
I26
tp5802
a(g336
g532
I26
tp5803
a(g532
g327
I33
tp5804
a(g327
g532
I33
tp5805
a(g532
g526
I26
tp5806
a(g526
g532
I26
tp5807
a(g532
g238
I18
tp5808
a(g238
g532
I18
tp5809
a(g532
g308
I38
tp5810
a(g308
g532
I38
tp5811
a(g532
g326
I29
tp5812
a(g326
g532
I29
tp5813
a(g532
g302
I9
tp5814
a(g302
g532
I9
tp5815
a(g532
g529
I20
tp5816
a(g529
g532
I20
tp5817
a(g532
g535
I12
tp5818
a(g535
g532
I12
tp5819
a(g17
g14
I11
tp5820
a(g14
g17
I11
tp5821
a(g17
g11
I27
tp5822
a(g11
g17
I27
tp5823
a(g17
g20
I35
tp5824
a(g20
g17
I35
tp5825
a(g595
g592
I16
tp5826
a(g592
g595
I16
tp5827
a(g595
g586
I38
tp5828
a(g586
g595
I38
tp5829
a(g595
g583
I39
tp5830
a(g583
g595
I39
tp5831
a(g595
g589
I28
tp5832
a(g589
g595
I28
tp5833
a(g47
g278
I15
tp5834
a(g278
g47
I15
tp5835
a(g47
g41
I36
tp5836
a(g41
g47
I36
tp5837
a(g47
g269
I32
tp5838
a(g269
g47
I32
tp5839
a(g47
g284
I25
tp5840
a(g284
g47
I25
tp5841
a(g47
g266
I39
tp5842
a(g266
g47
I39
tp5843
a(g47
g53
I39
tp5844
a(g53
g47
I39
tp5845
a(g47
g272
I17
tp5846
a(g272
g47
I17
tp5847
a(g47
g44
I12
tp5848
a(g44
g47
I12
tp5849
a(g47
g50
I4
tp5850
a(g50
g47
I4
tp5851
a(g47
g281
I23
tp5852
a(g281
g47
I23
tp5853
a(g47
g275
I14
tp5854
a(g275
g47
I14
tp5855
a(g287
g284
I31
tp5856
a(g284
g287
I31
tp5857
a(g287
g53
I19
tp5858
a(g53
g287
I19
tp5859
a(g287
g514
I24
tp5860
a(g514
g287
I24
tp5861
a(g287
g618
I16
tp5862
a(g618
g287
I16
tp5863
a(g287
g56
I14
tp5864
a(g56
g287
I14
tp5865
a(g287
g517
I26
tp5866
a(g517
g287
I26
tp5867
a(g287
g612
I13
tp5868
a(g612
g287
I13
tp5869
a(g287
g511
I18
tp5870
a(g511
g287
I18
tp5871
a(g287
g507
I16
tp5872
a(g507
g287
I16
tp5873
a(g287
g615
I15
tp5874
a(g615
g287
I15
tp5875
a(g287
g605
I8
tp5876
a(g605
g287
I8
tp5877
a(g287
g296
I24
tp5878
a(g296
g287
I24
tp5879
a(g287
g606
I7
tp5880
a(g606
g287
I7
tp5881
a(g287
g508
I13
tp5882
a(g508
g287
I13
tp5883
a(g287
g627
I26
tp5884
a(g627
g287
I26
tp5885
a(g287
g293
I19
tp5886
a(g293
g287
I19
tp5887
a(g287
g621
I19
tp5888
a(g621
g287
I19
tp5889
a(g287
g609
I11
tp5890
a(g609
g287
I11
tp5891
a(g287
g624
I21
tp5892
a(g624
g287
I21
tp5893
a(g287
g281
I34
tp5894
a(g281
g287
I34
tp5895
a(g287
g520
I28
tp5896
a(g520
g287
I28
tp5897
a(g164
g160
I21
tp5898
a(g160
g164
I21
tp5899
a(g164
g197
I17
tp5900
a(g197
g164
I17
tp5901
a(g164
g112
I6
tp5902
a(g112
g164
I6
tp5903
a(g164
g439
I24
tp5904
a(g439
g164
I24
tp5905
a(g164
g139
I13
tp5906
a(g139
g164
I13
tp5907
a(g164
g154
I17
tp5908
a(g154
g164
I17
tp5909
a(g164
g207
I9
tp5910
a(g207
g164
I9
tp5911
a(g164
g204
I12
tp5912
a(g204
g164
I12
tp5913
a(g164
g173
I35
tp5914
a(g173
g164
I35
tp5915
a(g164
g442
I23
tp5916
a(g442
g164
I23
tp5917
a(g164
g445
I22
tp5918
a(g445
g164
I22
tp5919
a(g164
g201
I13
tp5920
a(g201
g164
I13
tp5921
a(g164
g170
I22
tp5922
a(g170
g164
I22
tp5923
a(g164
g163
I3
tp5924
a(g163
g164
I3
tp5925
a(g164
g142
I3
tp5926
a(g142
g164
I3
tp5927
a(g164
g435
I25
tp5928
a(g435
g164
I25
tp5929
a(g164
g598
I23
tp5930
a(g598
g164
I23
tp5931
a(g164
g157
I22
tp5932
a(g157
g164
I22
tp5933
a(g498
g495
I3
tp5934
a(g495
g498
I3
tp5935
a(g498
g486
I10
tp5936
a(g486
g498
I10
tp5937
a(g498
g374
I21
tp5938
a(g374
g498
I21
tp5939
a(g498
g504
I3
tp5940
a(g504
g498
I3
tp5941
a(g498
g492
I8
tp5942
a(g492
g498
I8
tp5943
a(g498
g489
I9
tp5944
a(g489
g498
I9
tp5945
a(g498
g371
I23
tp5946
a(g371
g498
I23
tp5947
a(g498
g501
I2
tp5948
a(g501
g498
I2
tp5949
a(g164
g602
I17
tp5950
a(g602
g164
I17
tp5951
a(g164
g135
I18
tp5952
a(g135
g164
I18
tp5953
a(g164
g115
I3
tp5954
a(g115
g164
I3
tp5955
a(g164
g167
I6
tp5956
a(g167
g164
I6
tp5957
a(g164
g108
I8
tp5958
a(g108
g164
I8
tp5959
a(g164
g642
I26
tp5960
a(g642
g164
I26
tp5961
a(g164
g151
I14
tp5962
a(g151
g164
I14
tp5963
a(g580
g562
I34
tp5964
a(g562
g580
I34
tp5965
a(g580
g577
I7
tp5966
a(g577
g580
I7
tp5967
a(g580
g592
I26
tp5968
a(g592
g580
I26
tp5969
a(g580
g586
I5
tp5970
a(g586
g580
I5
tp5971
a(g580
g568
I28
tp5972
a(g568
g580
I28
tp5973
a(g580
g583
I3
tp5974
a(g583
g580
I3
tp5975
a(g580
g571
I22
tp5976
a(g571
g580
I22
tp5977
a(g580
g589
I15
tp5978
a(g589
g580
I15
tp5979
a(g580
g574
I17
tp5980
a(g574
g580
I17
tp5981
a(g580
g565
I32
tp5982
a(g565
g580
I32
tp5983
a(g83
g86
I9
tp5984
a(g86
g83
I9
tp5985
a(g83
g562
I27
tp5986
a(g562
g83
I27
tp5987
a(g83
g98
I28
tp5988
a(g98
g83
I28
tp5989
a(g83
g101
I37
tp5990
a(g101
g83
I37
tp5991
a(g83
g323
I36
tp5992
a(g323
g83
I36
tp5993
a(g83
g89
I12
tp5994
a(g89
g83
I12
tp5995
a(g83
g92
I16
tp5996
a(g92
g83
I16
tp5997
a(g83
g95
I20
tp5998
a(g95
g83
I20
tp5999
a(g83
g568
I30
tp6000
a(g568
g83
I30
tp6001
a(g83
g571
I34
tp6002
a(g571
g83
I34
tp6003
a(g83
g80
I32
tp6004
a(g80
g83
I32
tp6005
a(g83
g559
I26
tp6006
a(g559
g83
I26
tp6007
a(g83
g556
I29
tp6008
a(g556
g83
I29
tp6009
a(g83
g574
I39
tp6010
a(g574
g83
I39
tp6011
a(g83
g565
I28
tp6012
a(g565
g83
I28
tp6013
a(g448
g636
I30
tp6014
a(g636
g448
I30
tp6015
a(g448
g451
I8
tp6016
a(g451
g448
I8
tp6017
a(g448
g405
I29
tp6018
a(g405
g448
I29
tp6019
a(g448
g401
I27
tp6020
a(g401
g448
I27
tp6021
a(g448
g122
I30
tp6022
a(g122
g448
I30
tp6023
a(g448
g408
I31
tp6024
a(g408
g448
I31
tp6025
a(g448
g645
I12
tp6026
a(g645
g448
I12
tp6027
a(g448
g197
I24
tp6028
a(g197
g448
I24
tp6029
a(g448
g112
I34
tp6030
a(g112
g448
I34
tp6031
a(g448
g139
I37
tp6032
a(g139
g448
I37
tp6033
a(g448
g207
I37
tp6034
a(g207
g448
I37
tp6035
a(g448
g204
I33
tp6036
a(g204
g448
I33
tp6037
a(g241
g38
I28
tp6038
a(g38
g241
I28
tp6039
a(g241
g251
I19
tp6040
a(g251
g241
I19
tp6041
a(g241
g257
I33
tp6042
a(g257
g241
I33
tp6043
a(g241
g242
I5
tp6044
a(g242
g241
I5
tp6045
a(g241
g245
I9
tp6046
a(g245
g241
I9
tp6047
a(g241
g254
I22
tp6048
a(g254
g241
I22
tp6049
a(g241
g32
I11
tp6050
a(g32
g241
I11
tp6051
a(g241
g248
I14
tp6052
a(g248
g241
I14
tp6053
a(g241
g35
I10
tp6054
a(g35
g241
I10
tp6055
a(g241
g260
I37
tp6056
a(g260
g241
I37
tp6057
a(g448
g469
I38
tp6058
a(g469
g448
I38
tp6059
a(g448
g445
I37
tp6060
a(g445
g448
I37
tp6061
a(g448
g411
I36
tp6062
a(g411
g448
I36
tp6063
a(g448
g466
I36
tp6064
a(g466
g448
I36
tp6065
a(g448
g201
I30
tp6066
a(g201
g448
I30
tp6067
a(g448
g649
I14
tp6068
a(g649
g448
I14
tp6069
a(g448
g633
I35
tp6070
a(g633
g448
I35
tp6071
a(g448
g646
I11
tp6072
a(g646
g448
I11
tp6073
a(g448
g457
I13
tp6074
a(g457
g448
I13
tp6075
a(g448
g142
I39
tp6076
a(g142
g448
I39
tp6077
a(g448
g463
I27
tp6078
a(g463
g448
I27
tp6079
a(g448
g652
I15
tp6080
a(g652
g448
I15
tp6081
a(g448
g598
I16
tp6082
a(g598
g448
I16
tp6083
a(g448
g424
I25
tp6084
a(g424
g448
I25
tp6085
a(g448
g602
I22
tp6086
a(g602
g448
I22
tp6087
a(g448
g135
I37
tp6088
a(g135
g448
I37
tp6089
a(g448
g460
I14
tp6090
a(g460
g448
I14
tp6091
a(g448
g115
I36
tp6092
a(g115
g448
I36
tp6093
a(g448
g108
I31
tp6094
a(g108
g448
I31
tp6095
a(g448
g642
I14
tp6096
a(g642
g448
I14
tp6097
a(g448
g151
I39
tp6098
a(g151
g448
I39
tp6099
a(g357
g365
I4
tp6100
a(g365
g357
I4
tp6101
a(g357
g397
I2
tp6102
a(g397
g357
I2
tp6103
a(g357
g339
I22
tp6104
a(g339
g357
I22
tp6105
a(g357
g381
I31
tp6106
a(g381
g357
I31
tp6107
a(g357
g352
I5
tp6108
a(g352
g357
I5
tp6109
a(g357
g349
I8
tp6110
a(g349
g357
I8
tp6111
a(g357
g394
I7
tp6112
a(g394
g357
I7
tp6113
a(g357
g343
I20
tp6114
a(g343
g357
I20
tp6115
a(g357
g398
I4
tp6116
a(g398
g357
I4
tp6117
a(g357
g340
I22
tp6118
a(g340
g357
I22
tp6119
a(g357
g391
I20
tp6120
a(g391
g357
I20
tp6121
a(g357
g382
I35
tp6122
a(g382
g357
I35
tp6123
a(g357
g421
I35
tp6124
a(g421
g357
I35
tp6125
a(g357
g679
I34
tp6126
a(g679
g357
I34
tp6127
a(g357
g377
I1
tp6128
a(g377
g357
I1
tp6129
a(g357
g378
I3
tp6130
a(g378
g357
I3
tp6131
a(g357
g385
I27
tp6132
a(g385
g357
I27
tp6133
a(g357
g346
I8
tp6134
a(g346
g357
I8
tp6135
a(g357
g414
I30
tp6136
a(g414
g357
I30
tp6137
a(g357
g388
I20
tp6138
a(g388
g357
I20
tp6139
a(g357
g420
I30
tp6140
a(g420
g357
I30
tp6141
a(g378
g365
I1
tp6142
a(g365
g378
I1
tp6143
a(g378
g397
I3
tp6144
a(g397
g378
I3
tp6145
a(g378
g339
I26
tp6146
a(g339
g378
I26
tp6147
a(g378
g381
I34
tp6148
a(g381
g378
I34
tp6149
a(g378
g352
I9
tp6150
a(g352
g378
I9
tp6151
a(g378
g349
I12
tp6152
a(g349
g378
I12
tp6153
a(g378
g394
I11
tp6154
a(g394
g378
I11
tp6155
a(g378
g343
I24
tp6156
a(g343
g378
I24
tp6157
a(g378
g398
I2
tp6158
a(g398
g378
I2
tp6159
a(g378
g340
I26
tp6160
a(g340
g378
I26
tp6161
a(g378
g391
I24
tp6162
a(g391
g378
I24
tp6163
a(g378
g382
I38
tp6164
a(g382
g378
I38
tp6165
a(g378
g421
I38
tp6166
a(g421
g378
I38
tp6167
a(g378
g679
I33
tp6168
a(g679
g378
I33
tp6169
a(g378
g377
I2
tp6170
a(g377
g378
I2
tp6171
a(g378
g357
I3
tp6172
a(g357
g378
I3
tp6173
a(g378
g385
I30
tp6174
a(g385
g378
I30
tp6175
a(g378
g346
I12
tp6176
a(g346
g378
I12
tp6177
a(g378
g414
I30
tp6178
a(g414
g378
I30
tp6179
a(g378
g388
I24
tp6180
a(g388
g378
I24
tp6181
a(g378
g420
I33
tp6182
a(g420
g378
I33
tp6183
a(g432
g439
I30
tp6184
a(g439
g432
I30
tp6185
a(g432
g139
I39
tp6186
a(g139
g432
I39
tp6187
a(g432
g429
I25
tp6188
a(g429
g432
I25
tp6189
a(g432
g442
I30
tp6190
a(g442
g432
I30
tp6191
a(g432
g445
I30
tp6192
a(g445
g432
I30
tp6193
a(g432
g428
I9
tp6194
a(g428
g432
I9
tp6195
a(g432
g435
I29
tp6196
a(g435
g432
I29
tp6197
a(g432
g436
I4
tp6198
a(g436
g432
I4
tp6199
a(g432
g135
I34
tp6200
a(g135
g432
I34
tp6201
a(g35
g38
I25
tp6202
a(g38
g35
I25
tp6203
a(g35
g251
I20
tp6204
a(g251
g35
I20
tp6205
a(g35
g257
I33
tp6206
a(g257
g35
I33
tp6207
a(g35
g242
I12
tp6208
a(g242
g35
I12
tp6209
a(g35
g245
I13
tp6210
a(g245
g35
I13
tp6211
a(g35
g254
I22
tp6212
a(g254
g35
I22
tp6213
a(g35
g32
I4
tp6214
a(g32
g35
I4
tp6215
a(g35
g248
I16
tp6216
a(g248
g35
I16
tp6217
a(g35
g241
I10
tp6218
a(g241
g35
I10
tp6219
a(g35
g260
I37
tp6220
a(g260
g35
I37
tp6221
a(g630
g365
I39
tp6222
a(g365
g630
I39
tp6223
a(g630
g381
I36
tp6224
a(g381
g630
I36
tp6225
a(g630
g618
I32
tp6226
a(g618
g630
I32
tp6227
a(g630
g382
I32
tp6228
a(g382
g630
I32
tp6229
a(g630
g612
I35
tp6230
a(g612
g630
I35
tp6231
a(g630
g511
I37
tp6232
a(g511
g630
I37
tp6233
a(g630
g507
I36
tp6234
a(g507
g630
I36
tp6235
a(g630
g615
I33
tp6236
a(g615
g630
I33
tp6237
a(g630
g421
I32
tp6238
a(g421
g630
I32
tp6239
a(g630
g508
I35
tp6240
a(g508
g630
I35
tp6241
a(g630
g627
I22
tp6242
a(g627
g630
I22
tp6243
a(g630
g621
I29
tp6244
a(g621
g630
I29
tp6245
a(g630
g609
I37
tp6246
a(g609
g630
I37
tp6247
a(g630
g624
I27
tp6248
a(g624
g630
I27
tp6249
a(g630
g385
I33
tp6250
a(g385
g630
I33
tp6251
a(g630
g414
I11
tp6252
a(g414
g630
I11
tp6253
a(g630
g420
I38
tp6254
a(g420
g630
I38
tp6255
a(g504
g495
I6
tp6256
a(g495
g504
I6
tp6257
a(g504
g486
I14
tp6258
a(g486
g504
I14
tp6259
a(g504
g374
I22
tp6260
a(g374
g504
I22
tp6261
a(g504
g498
I3
tp6262
a(g498
g504
I3
tp6263
a(g504
g492
I11
tp6264
a(g492
g504
I11
tp6265
a(g504
g489
I13
tp6266
a(g489
g504
I13
tp6267
a(g504
g371
I24
tp6268
a(g371
g504
I24
tp6269
a(g504
g501
I1
tp6270
a(g501
g504
I1
tp6271
a(g308
g330
I15
tp6272
a(g330
g308
I15
tp6273
a(g308
g480
I38
tp6274
a(g480
g308
I38
tp6275
a(g308
g132
I33
tp6276
a(g132
g308
I33
tp6277
a(g308
g538
I20
tp6278
a(g538
g308
I20
tp6279
a(g308
g235
I39
tp6280
a(g235
g308
I39
tp6281
a(g308
g62
I33
tp6282
a(g62
g308
I33
tp6283
a(g308
g333
I26
tp6284
a(g333
g308
I26
tp6285
a(g308
g336
I32
tp6286
a(g336
g308
I32
tp6287
a(g308
g311
I15
tp6288
a(g311
g308
I15
tp6289
a(g308
g327
I6
tp6290
a(g327
g308
I6
tp6291
a(g308
g125
I22
tp6292
a(g125
g308
I22
tp6293
a(g308
g532
I38
tp6294
a(g532
g308
I38
tp6295
a(g308
g326
I9
tp6296
a(g326
g308
I9
tp6297
a(g308
g314
I20
tp6298
a(g314
g308
I20
tp6299
a(g308
g68
I13
tp6300
a(g68
g308
I13
tp6301
a(g308
g476
I36
tp6302
a(g476
g308
I36
tp6303
a(g308
g302
I35
tp6304
a(g302
g308
I35
tp6305
a(g308
g129
I28
tp6306
a(g129
g308
I28
tp6307
a(g308
g541
I34
tp6308
a(g541
g308
I34
tp6309
a(g308
g535
I26
tp6310
a(g535
g308
I26
tp6311
a(g77
g553
I27
tp6312
a(g553
g77
I27
tp6313
a(g77
g323
I19
tp6314
a(g323
g77
I19
tp6315
a(g77
g547
I33
tp6316
a(g547
g77
I33
tp6317
a(g77
g550
I27
tp6318
a(g550
g77
I27
tp6319
a(g77
g80
I20
tp6320
a(g80
g77
I20
tp6321
a(g77
g320
I16
tp6322
a(g320
g77
I16
tp6323
a(g77
g556
I38
tp6324
a(g556
g77
I38
tp6325
a(g191
g173
I33
tp6326
a(g173
g191
I33
tp6327
a(g191
g176
I16
tp6328
a(g176
g191
I16
tp6329
a(g191
g182
I6
tp6330
a(g182
g191
I6
tp6331
a(g191
g188
I2
tp6332
a(g188
g191
I2
tp6333
a(g191
g194
I7
tp6334
a(g194
g191
I7
tp6335
a(g191
g179
I13
tp6336
a(g179
g191
I13
tp6337
a(g191
g185
I3
tp6338
a(g185
g191
I3
tp6339
a(g326
g330
I6
tp6340
a(g330
g326
I6
tp6341
a(g326
g538
I28
tp6342
a(g538
g326
I28
tp6343
a(g326
g232
I35
tp6344
a(g232
g326
I35
tp6345
a(g326
g235
I30
tp6346
a(g235
g326
I30
tp6347
a(g326
g62
I24
tp6348
a(g62
g326
I24
tp6349
a(g326
g333
I18
tp6350
a(g333
g326
I18
tp6351
a(g326
g336
I24
tp6352
a(g336
g326
I24
tp6353
a(g326
g311
I24
tp6354
a(g311
g326
I24
tp6355
a(g326
g327
I7
tp6356
a(g327
g326
I7
tp6357
a(g326
g125
I31
tp6358
a(g125
g326
I31
tp6359
a(g326
g532
I29
tp6360
a(g532
g326
I29
tp6361
a(g326
g308
I9
tp6362
a(g308
g326
I9
tp6363
a(g326
g314
I29
tp6364
a(g314
g326
I29
tp6365
a(g326
g68
I20
tp6366
a(g68
g326
I20
tp6367
a(g326
g302
I25
tp6368
a(g302
g326
I25
tp6369
a(g326
g129
I38
tp6370
a(g129
g326
I38
tp6371
a(g326
g535
I18
tp6372
a(g535
g326
I18
tp6373
a(g492
g483
I38
tp6374
a(g483
g492
I38
tp6375
a(g492
g495
I5
tp6376
a(g495
g492
I5
tp6377
a(g44
g278
I26
tp6378
a(g278
g44
I26
tp6379
a(g44
g41
I24
tp6380
a(g41
g44
I24
tp6381
a(g44
g269
I21
tp6382
a(g269
g44
I21
tp6383
a(g44
g284
I37
tp6384
a(g284
g44
I37
tp6385
a(g44
g266
I27
tp6386
a(g266
g44
I27
tp6387
a(g44
g272
I9
tp6388
a(g272
g44
I9
tp6389
a(g44
g263
I32
tp6390
a(g263
g44
I32
tp6391
a(g492
g486
I2
tp6392
a(g486
g492
I2
tp6393
a(g492
g374
I21
tp6394
a(g374
g492
I21
tp6395
a(g492
g498
I8
tp6396
a(g498
g492
I8
tp6397
a(g492
g504
I11
tp6398
a(g504
g492
I11
tp6399
a(g492
g489
I1
tp6400
a(g489
g492
I1
tp6401
a(g44
g47
I12
tp6402
a(g47
g44
I12
tp6403
a(g44
g50
I16
tp6404
a(g50
g44
I16
tp6405
a(g44
g281
I34
tp6406
a(g281
g44
I34
tp6407
a(g44
g275
I9
tp6408
a(g275
g44
I9
tp6409
a(g44
g260
I36
tp6410
a(g260
g44
I36
tp6411
a(g26
g29
I23
tp6412
a(g29
g26
I23
tp6413
a(g26
g23
I26
tp6414
a(g23
g26
I26
tp6415
a(g492
g371
I22
tp6416
a(g371
g492
I22
tp6417
a(g492
g501
I10
tp6418
a(g501
g492
I10
tp6419
a(g624
g53
I38
tp6420
a(g53
g624
I38
tp6421
a(g624
g514
I17
tp6422
a(g514
g624
I17
tp6423
a(g624
g618
I5
tp6424
a(g618
g624
I5
tp6425
a(g624
g56
I31
tp6426
a(g56
g624
I31
tp6427
a(g624
g523
I35
tp6428
a(g523
g624
I35
tp6429
a(g624
g517
I19
tp6430
a(g517
g624
I19
tp6431
a(g624
g612
I8
tp6432
a(g612
g624
I8
tp6433
a(g624
g511
I10
tp6434
a(g511
g624
I10
tp6435
a(g624
g507
I9
tp6436
a(g507
g624
I9
tp6437
a(g624
g615
I6
tp6438
a(g615
g624
I6
tp6439
a(g624
g605
I15
tp6440
a(g605
g624
I15
tp6441
a(g624
g296
I27
tp6442
a(g296
g624
I27
tp6443
a(g624
g606
I20
tp6444
a(g606
g624
I20
tp6445
a(g624
g508
I8
tp6446
a(g508
g624
I8
tp6447
a(g624
g627
I4
tp6448
a(g627
g624
I4
tp6449
a(g624
g293
I24
tp6450
a(g293
g624
I24
tp6451
a(g624
g526
I39
tp6452
a(g526
g624
I39
tp6453
a(g624
g621
I1
tp6454
a(g621
g624
I1
tp6455
a(g624
g609
I10
tp6456
a(g609
g624
I10
tp6457
a(g624
g287
I21
tp6458
a(g287
g624
I21
tp6459
a(g624
g630
I27
tp6460
a(g630
g624
I27
tp6461
a(g624
g414
I28
tp6462
a(g414
g624
I28
tp6463
a(g624
g520
I22
tp6464
a(g520
g624
I22
tp6465
a(g188
g173
I31
tp6466
a(g173
g188
I31
tp6467
a(g188
g176
I14
tp6468
a(g176
g188
I14
tp6469
a(g188
g182
I4
tp6470
a(g182
g188
I4
tp6471
a(g188
g191
I2
tp6472
a(g191
g188
I2
tp6473
a(g188
g194
I9
tp6474
a(g194
g188
I9
tp6475
a(g188
g179
I11
tp6476
a(g179
g188
I11
tp6477
a(g188
g185
I1
tp6478
a(g185
g188
I1
tp6479
a(g157
g160
I2
tp6480
a(g160
g157
I2
tp6481
a(g157
g197
I22
tp6482
a(g197
g157
I22
tp6483
a(g157
g112
I25
tp6484
a(g112
g157
I25
tp6485
a(g157
g139
I35
tp6486
a(g139
g157
I35
tp6487
a(g157
g154
I5
tp6488
a(g154
g157
I5
tp6489
a(g157
g207
I13
tp6490
a(g207
g157
I13
tp6491
a(g157
g204
I15
tp6492
a(g204
g157
I15
tp6493
a(g157
g201
I17
tp6494
a(g201
g157
I17
tp6495
a(g157
g170
I37
tp6496
a(g170
g157
I37
tp6497
a(g157
g163
I21
tp6498
a(g163
g157
I21
tp6499
a(g157
g142
I25
tp6500
a(g142
g157
I25
tp6501
a(g157
g598
I31
tp6502
a(g598
g157
I31
tp6503
a(g157
g164
I22
tp6504
a(g164
g157
I22
tp6505
a(g157
g602
I31
tp6506
a(g602
g157
I31
tp6507
a(g157
g135
I39
tp6508
a(g135
g157
I39
tp6509
a(g157
g115
I23
tp6510
a(g115
g157
I23
tp6511
a(g157
g167
I23
tp6512
a(g167
g157
I23
tp6513
a(g157
g108
I26
tp6514
a(g108
g157
I26
tp6515
a(g157
g642
I32
tp6516
a(g642
g157
I32
tp6517
a(g157
g151
I9
tp6518
a(g151
g157
I9
tp6519
a(g314
g483
I32
tp6520
a(g483
g314
I32
tp6521
a(g314
g330
I35
tp6522
a(g330
g314
I35
tp6523
a(g314
g480
I23
tp6524
a(g480
g314
I23
tp6525
a(g314
g132
I15
tp6526
a(g132
g314
I15
tp6527
a(g314
g538
I11
tp6528
a(g538
g314
I11
tp6529
a(g314
g544
I37
tp6530
a(g544
g314
I37
tp6531
a(g314
g311
I4
tp6532
a(g311
g314
I4
tp6533
a(g314
g327
I24
tp6534
a(g327
g314
I24
tp6535
a(g314
g125
I4
tp6536
a(g125
g314
I4
tp6537
a(g314
g308
I20
tp6538
a(g308
g314
I20
tp6539
a(g314
g326
I29
tp6540
a(g326
g314
I29
tp6541
a(g314
g68
I15
tp6542
a(g68
g314
I15
tp6543
a(g314
g476
I19
tp6544
a(g476
g314
I19
tp6545
a(g314
g129
I10
tp6546
a(g129
g314
I10
tp6547
a(g314
g541
I15
tp6548
a(g541
g314
I15
tp6549
a(g436
g439
I25
tp6550
a(g439
g436
I25
tp6551
a(g436
g139
I35
tp6552
a(g139
g436
I35
tp6553
a(g436
g429
I30
tp6554
a(g429
g436
I30
tp6555
a(g436
g442
I25
tp6556
a(g442
g436
I25
tp6557
a(g385
g365
I29
tp6558
a(g365
g385
I29
tp6559
a(g385
g397
I30
tp6560
a(g397
g385
I30
tp6561
a(g385
g636
I31
tp6562
a(g636
g385
I31
tp6563
a(g385
g339
I18
tp6564
a(g339
g385
I18
tp6565
a(g385
g381
I4
tp6566
a(g381
g385
I4
tp6567
a(g385
g352
I24
tp6568
a(g352
g385
I24
tp6569
a(g385
g349
I24
tp6570
a(g349
g385
I24
tp6571
a(g385
g405
I24
tp6572
a(g405
g385
I24
tp6573
a(g385
g401
I26
tp6574
a(g401
g385
I26
tp6575
a(g385
g394
I22
tp6576
a(g394
g385
I22
tp6577
a(g385
g408
I22
tp6578
a(g408
g385
I22
tp6579
a(g385
g343
I18
tp6580
a(g343
g385
I18
tp6581
a(g385
g398
I32
tp6582
a(g398
g385
I32
tp6583
a(g385
g340
I22
tp6584
a(g340
g385
I22
tp6585
a(g385
g391
I18
tp6586
a(g391
g385
I18
tp6587
a(g385
g382
I8
tp6588
a(g382
g385
I8
tp6589
a(g385
g360
I25
tp6590
a(g360
g385
I25
tp6591
a(g385
g411
I18
tp6592
a(g411
g385
I18
tp6593
a(g385
g421
I8
tp6594
a(g421
g385
I8
tp6595
a(g385
g633
I28
tp6596
a(g633
g385
I28
tp6597
a(g385
g457
I39
tp6598
a(g457
g385
I39
tp6599
a(g385
g377
I28
tp6600
a(g377
g385
I28
tp6601
a(g385
g357
I27
tp6602
a(g357
g385
I27
tp6603
a(g385
g378
I30
tp6604
a(g378
g385
I30
tp6605
a(g385
g630
I33
tp6606
a(g630
g385
I33
tp6607
a(g385
g346
I22
tp6608
a(g346
g385
I22
tp6609
a(g385
g424
I27
tp6610
a(g424
g385
I27
tp6611
a(g385
g414
I27
tp6612
a(g414
g385
I27
tp6613
a(g385
g388
I16
tp6614
a(g388
g385
I16
tp6615
a(g385
g460
I38
tp6616
a(g460
g385
I38
tp6617
a(g385
g420
I5
tp6618
a(g420
g385
I5
tp6619
a(g74
g132
I30
tp6620
a(g132
g74
I30
tp6621
a(g74
g547
I22
tp6622
a(g547
g74
I22
tp6623
a(g74
g544
I19
tp6624
a(g544
g74
I19
tp6625
a(g74
g550
I28
tp6626
a(g550
g74
I28
tp6627
a(g74
g320
I28
tp6628
a(g320
g74
I28
tp6629
a(g74
g476
I38
tp6630
a(g476
g74
I38
tp6631
a(g74
g317
I8
tp6632
a(g317
g74
I8
tp6633
a(g74
g129
I35
tp6634
a(g129
g74
I35
tp6635
a(g74
g541
I36
tp6636
a(g541
g74
I36
tp6637
a(g436
g445
I26
tp6638
a(g445
g436
I26
tp6639
a(g436
g428
I14
tp6640
a(g428
g436
I14
tp6641
a(g436
g435
I24
tp6642
a(g435
g436
I24
tp6643
a(g436
g432
I4
tp6644
a(g432
g436
I4
tp6645
a(g436
g135
I30
tp6646
a(g135
g436
I30
tp6647
a(g346
g365
I12
tp6648
a(g365
g346
I12
tp6649
a(g346
g397
I9
tp6650
a(g397
g346
I9
tp6651
a(g346
g339
I14
tp6652
a(g339
g346
I14
tp6653
a(g346
g381
I25
tp6654
a(g381
g346
I25
tp6655
a(g346
g352
I3
tp6656
a(g352
g346
I3
tp6657
a(g346
g349
I2
tp6658
a(g349
g346
I2
tp6659
a(g346
g394
I1
tp6660
a(g394
g346
I1
tp6661
a(g346
g343
I12
tp6662
a(g343
g346
I12
tp6663
a(g346
g398
I12
tp6664
a(g398
g346
I12
tp6665
a(g346
g340
I14
tp6666
a(g340
g346
I14
tp6667
a(g346
g391
I12
tp6668
a(g391
g346
I12
tp6669
a(g346
g382
I30
tp6670
a(g382
g346
I30
tp6671
a(g346
g360
I32
tp6672
a(g360
g346
I32
tp6673
a(g346
g421
I30
tp6674
a(g421
g346
I30
tp6675
a(g346
g679
I38
tp6676
a(g679
g346
I38
tp6677
a(g346
g377
I9
tp6678
a(g377
g346
I9
tp6679
a(g346
g357
I8
tp6680
a(g357
g346
I8
tp6681
a(g346
g378
I12
tp6682
a(g378
g346
I12
tp6683
a(g346
g385
I22
tp6684
a(g385
g346
I22
tp6685
a(g346
g414
I32
tp6686
a(g414
g346
I32
tp6687
a(g346
g388
I12
tp6688
a(g388
g346
I12
tp6689
a(g346
g420
I23
tp6690
a(g420
g346
I23
tp6691
a(g424
g636
I15
tp6692
a(g636
g424
I15
tp6693
a(g424
g339
I35
tp6694
a(g339
g424
I35
tp6695
a(g424
g381
I22
tp6696
a(g381
g424
I22
tp6697
a(g414
g365
I28
tp6698
a(g365
g414
I28
tp6699
a(g414
g397
I32
tp6700
a(g397
g414
I32
tp6701
a(g414
g381
I31
tp6702
a(g381
g414
I31
tp6703
a(g414
g352
I31
tp6704
a(g352
g414
I31
tp6705
a(g414
g349
I34
tp6706
a(g349
g414
I34
tp6707
a(g414
g394
I32
tp6708
a(g394
g414
I32
tp6709
a(g414
g343
I38
tp6710
a(g343
g414
I38
tp6711
a(g414
g398
I32
tp6712
a(g398
g414
I32
tp6713
a(g414
g391
I38
tp6714
a(g391
g414
I38
tp6715
a(g414
g514
I38
tp6716
a(g514
g414
I38
tp6717
a(g414
g618
I34
tp6718
a(g618
g414
I34
tp6719
a(g414
g382
I30
tp6720
a(g382
g414
I30
tp6721
a(g414
g517
I39
tp6722
a(g517
g414
I39
tp6723
a(g414
g612
I37
tp6724
a(g612
g414
I37
tp6725
a(g414
g511
I36
tp6726
a(g511
g414
I36
tp6727
a(g414
g507
I36
tp6728
a(g507
g414
I36
tp6729
a(g414
g615
I35
tp6730
a(g615
g414
I35
tp6731
a(g414
g411
I39
tp6732
a(g411
g414
I39
tp6733
a(g414
g421
I30
tp6734
a(g421
g414
I30
tp6735
a(g414
g377
I30
tp6736
a(g377
g414
I30
tp6737
a(g414
g508
I37
tp6738
a(g508
g414
I37
tp6739
a(g414
g627
I24
tp6740
a(g627
g414
I24
tp6741
a(g414
g621
I30
tp6742
a(g621
g414
I30
tp6743
a(g414
g609
I39
tp6744
a(g609
g414
I39
tp6745
a(g414
g357
I30
tp6746
a(g357
g414
I30
tp6747
a(g414
g378
I30
tp6748
a(g378
g414
I30
tp6749
a(g414
g630
I11
tp6750
a(g630
g414
I11
tp6751
a(g414
g624
I28
tp6752
a(g624
g414
I28
tp6753
a(g414
g385
I27
tp6754
a(g385
g414
I27
tp6755
a(g414
g346
I32
tp6756
a(g346
g414
I32
tp6757
a(g414
g388
I37
tp6758
a(g388
g414
I37
tp6759
a(g424
g451
I17
tp6760
a(g451
g424
I17
tp6761
a(g424
g405
I4
tp6762
a(g405
g424
I4
tp6763
a(g424
g401
I2
tp6764
a(g401
g424
I2
tp6765
a(g424
g122
I27
tp6766
a(g122
g424
I27
tp6767
a(g424
g408
I7
tp6768
a(g408
g424
I7
tp6769
a(g424
g645
I17
tp6770
a(g645
g424
I17
tp6771
a(g424
g343
I36
tp6772
a(g343
g424
I36
tp6773
a(g424
g340
I38
tp6774
a(g340
g424
I38
tp6775
a(g424
g391
I36
tp6776
a(g391
g424
I36
tp6777
a(g424
g382
I21
tp6778
a(g382
g424
I21
tp6779
a(g424
g360
I24
tp6780
a(g360
g424
I24
tp6781
a(g424
g469
I31
tp6782
a(g469
g424
I31
tp6783
a(g424
g411
I12
tp6784
a(g411
g424
I12
tp6785
a(g424
g466
I32
tp6786
a(g466
g424
I32
tp6787
a(g424
g421
I21
tp6788
a(g421
g424
I21
tp6789
a(g424
g649
I19
tp6790
a(g649
g424
I19
tp6791
a(g424
g633
I17
tp6792
a(g633
g424
I17
tp6793
a(g424
g646
I14
tp6794
a(g646
g424
I14
tp6795
a(g424
g457
I12
tp6796
a(g457
g424
I12
tp6797
a(g424
g463
I23
tp6798
a(g463
g424
I23
tp6799
a(g424
g652
I20
tp6800
a(g652
g424
I20
tp6801
a(g424
g448
I25
tp6802
a(g448
g424
I25
tp6803
a(g414
g420
I32
tp6804
a(g420
g414
I32
tp6805
a(g424
g385
I27
tp6806
a(g385
g424
I27
tp6807
a(g424
g388
I35
tp6808
a(g388
g424
I35
tp6809
a(g424
g460
I12
tp6810
a(g460
g424
I12
tp6811
a(g424
g642
I37
tp6812
a(g642
g424
I37
tp6813
a(g424
g420
I23
tp6814
a(g420
g424
I23
tp6815
a(g68
g330
I24
tp6816
a(g330
g68
I24
tp6817
a(g68
g480
I38
tp6818
a(g480
g68
I38
tp6819
a(g68
g132
I23
tp6820
a(g132
g68
I23
tp6821
a(g68
g538
I22
tp6822
a(g538
g68
I22
tp6823
a(g68
g62
I39
tp6824
a(g62
g68
I39
tp6825
a(g68
g333
I32
tp6826
a(g333
g68
I32
tp6827
a(g68
g336
I37
tp6828
a(g336
g68
I37
tp6829
a(g68
g311
I11
tp6830
a(g311
g68
I11
tp6831
a(g68
g327
I19
tp6832
a(g327
g68
I19
tp6833
a(g68
g125
I14
tp6834
a(g125
g68
I14
tp6835
a(g68
g308
I13
tp6836
a(g308
g68
I13
tp6837
a(g68
g326
I20
tp6838
a(g326
g68
I20
tp6839
a(g68
g314
I15
tp6840
a(g314
g68
I15
tp6841
a(g68
g476
I34
tp6842
a(g476
g68
I34
tp6843
a(g68
g129
I19
tp6844
a(g129
g68
I19
tp6845
a(g68
g541
I30
tp6846
a(g541
g68
I30
tp6847
a(g68
g535
I38
tp6848
a(g535
g68
I38
tp6849
a(g602
g451
I30
tp6850
a(g451
g602
I30
tp6851
a(g602
g160
I31
tp6852
a(g160
g602
I31
tp6853
a(g602
g645
I32
tp6854
a(g645
g602
I32
tp6855
a(g602
g197
I10
tp6856
a(g197
g602
I10
tp6857
a(g602
g112
I11
tp6858
a(g112
g602
I11
tp6859
a(g602
g439
I23
tp6860
a(g439
g602
I23
tp6861
a(g602
g139
I15
tp6862
a(g139
g602
I15
tp6863
a(g602
g154
I26
tp6864
a(g154
g602
I26
tp6865
a(g602
g207
I19
tp6866
a(g207
g602
I19
tp6867
a(g602
g204
I16
tp6868
a(g204
g602
I16
tp6869
a(g602
g442
I22
tp6870
a(g442
g602
I22
tp6871
a(g602
g445
I18
tp6872
a(g445
g602
I18
tp6873
a(g602
g201
I13
tp6874
a(g201
g602
I13
tp6875
a(g602
g649
I32
tp6876
a(g649
g602
I32
tp6877
a(g602
g646
I33
tp6878
a(g646
g602
I33
tp6879
a(g602
g457
I36
tp6880
a(g457
g602
I36
tp6881
a(g602
g170
I38
tp6882
a(g170
g602
I38
tp6883
a(g602
g163
I21
tp6884
a(g163
g602
I21
tp6885
a(g602
g142
I16
tp6886
a(g142
g602
I16
tp6887
a(g602
g435
I24
tp6888
a(g435
g602
I24
tp6889
a(g602
g652
I32
tp6890
a(g652
g602
I32
tp6891
a(g602
g598
I7
tp6892
a(g598
g602
I7
tp6893
a(g602
g164
I17
tp6894
a(g164
g602
I17
tp6895
a(g602
g448
I22
tp6896
a(g448
g602
I22
tp6897
a(g602
g157
I31
tp6898
a(g157
g602
I31
tp6899
a(g602
g135
I16
tp6900
a(g135
g602
I16
tp6901
a(g602
g460
I37
tp6902
a(g460
g602
I37
tp6903
a(g602
g115
I14
tp6904
a(g115
g602
I14
tp6905
a(g602
g167
I24
tp6906
a(g167
g602
I24
tp6907
a(g602
g108
I9
tp6908
a(g108
g602
I9
tp6909
a(g602
g642
I11
tp6910
a(g642
g602
I11
tp6911
a(g602
g151
I22
tp6912
a(g151
g602
I22
tp6913
a(g574
g86
I37
tp6914
a(g86
g574
I37
tp6915
a(g574
g562
I17
tp6916
a(g562
g574
I17
tp6917
a(g574
g577
I10
tp6918
a(g577
g574
I10
tp6919
a(g574
g89
I38
tp6920
a(g89
g574
I38
tp6921
a(g574
g586
I22
tp6922
a(g586
g574
I22
tp6923
a(g574
g568
I11
tp6924
a(g568
g574
I11
tp6925
a(g574
g583
I21
tp6926
a(g583
g574
I21
tp6927
a(g574
g571
I5
tp6928
a(g571
g574
I5
tp6929
a(g574
g589
I32
tp6930
a(g589
g574
I32
tp6931
a(g574
g559
I27
tp6932
a(g559
g574
I27
tp6933
a(g574
g556
I35
tp6934
a(g556
g574
I35
tp6935
a(g574
g580
I17
tp6936
a(g580
g574
I17
tp6937
a(g574
g83
I39
tp6938
a(g83
g574
I39
tp6939
a(g574
g565
I15
tp6940
a(g565
g574
I15
tp6941
a(g388
g365
I24
tp6942
a(g365
g388
I24
tp6943
a(g388
g397
I22
tp6944
a(g397
g388
I22
tp6945
a(g388
g339
I2
tp6946
a(g339
g388
I2
tp6947
a(g388
g381
I17
tp6948
a(g381
g388
I17
tp6949
a(g388
g352
I15
tp6950
a(g352
g388
I15
tp6951
a(g388
g349
I12
tp6952
a(g349
g388
I12
tp6953
a(g388
g405
I35
tp6954
a(g405
g388
I35
tp6955
a(g388
g401
I35
tp6956
a(g401
g388
I35
tp6957
a(g388
g122
I39
tp6958
a(g122
g388
I39
tp6959
a(g388
g394
I13
tp6960
a(g394
g388
I13
tp6961
a(g388
g408
I34
tp6962
a(g408
g388
I34
tp6963
a(g388
g343
I1
tp6964
a(g343
g388
I1
tp6965
a(g388
g398
I24
tp6966
a(g398
g388
I24
tp6967
a(g388
g340
I6
tp6968
a(g340
g388
I6
tp6969
a(g388
g391
I1
tp6970
a(g391
g388
I1
tp6971
a(g388
g382
I23
tp6972
a(g382
g388
I23
tp6973
a(g388
g360
I20
tp6974
a(g360
g388
I20
tp6975
a(g388
g469
I34
tp6976
a(g469
g388
I34
tp6977
a(g388
g411
I32
tp6978
a(g411
g388
I32
tp6979
a(g388
g466
I38
tp6980
a(g466
g388
I38
tp6981
a(g388
g421
I23
tp6982
a(g421
g388
I23
tp6983
a(g388
g377
I22
tp6984
a(g377
g388
I22
tp6985
a(g388
g463
I38
tp6986
a(g463
g388
I38
tp6987
a(g489
g483
I37
tp6988
a(g483
g489
I37
tp6989
a(g489
g495
I6
tp6990
a(g495
g489
I6
tp6991
a(g489
g486
I1
tp6992
a(g486
g489
I1
tp6993
a(g489
g374
I21
tp6994
a(g374
g489
I21
tp6995
a(g489
g498
I9
tp6996
a(g498
g489
I9
tp6997
a(g489
g504
I13
tp6998
a(g504
g489
I13
tp6999
a(g489
g492
I1
tp7000
a(g492
g489
I1
tp7001
a(g489
g371
I22
tp7002
a(g371
g489
I22
tp7003
a(g489
g501
I12
tp7004
a(g501
g489
I12
tp7005
a(g388
g357
I20
tp7006
a(g357
g388
I20
tp7007
a(g388
g378
I24
tp7008
a(g378
g388
I24
tp7009
a(g388
g385
I16
tp7010
a(g385
g388
I16
tp7011
a(g388
g346
I12
tp7012
a(g346
g388
I12
tp7013
a(g388
g424
I35
tp7014
a(g424
g388
I35
tp7015
a(g388
g414
I37
tp7016
a(g414
g388
I37
tp7017
a(g388
g420
I14
tp7018
a(g420
g388
I14
tp7019
a(g220
g226
I5
tp7020
a(g226
g220
I5
tp7021
a(g220
g229
I9
tp7022
a(g229
g220
I9
tp7023
a(g220
g232
I17
tp7024
a(g232
g220
I17
tp7025
a(g220
g235
I34
tp7026
a(g235
g220
I34
tp7027
a(g220
g62
I30
tp7028
a(g62
g220
I30
tp7029
a(g220
g214
I4
tp7030
a(g214
g220
I4
tp7031
a(g220
g217
I2
tp7032
a(g217
g220
I2
tp7033
a(g220
g333
I32
tp7034
a(g333
g220
I32
tp7035
a(g220
g336
I26
tp7036
a(g336
g220
I26
tp7037
a(g220
g211
I10
tp7038
a(g211
g220
I10
tp7039
a(g220
g223
I2
tp7040
a(g223
g220
I2
tp7041
a(g220
g210
I6
tp7042
a(g210
g220
I6
tp7043
a(g476
g483
I18
tp7044
a(g483
g476
I18
tp7045
a(g476
g480
I5
tp7046
a(g480
g476
I5
tp7047
a(g476
g132
I23
tp7048
a(g132
g476
I23
tp7049
a(g476
g538
I16
tp7050
a(g538
g476
I16
tp7051
a(g476
g544
I24
tp7052
a(g544
g476
I24
tp7053
a(g476
g472
I38
tp7054
a(g472
g476
I38
tp7055
a(g476
g311
I23
tp7056
a(g311
g476
I23
tp7057
a(g476
g327
I38
tp7058
a(g327
g476
I38
tp7059
a(g476
g125
I21
tp7060
a(g125
g476
I21
tp7061
a(g476
g308
I36
tp7062
a(g308
g476
I36
tp7063
a(g476
g314
I19
tp7064
a(g314
g476
I19
tp7065
a(g476
g74
I38
tp7066
a(g74
g476
I38
tp7067
a(g476
g68
I34
tp7068
a(g68
g476
I34
tp7069
a(g476
g317
I32
tp7070
a(g317
g476
I32
tp7071
a(g476
g129
I21
tp7072
a(g129
g476
I21
tp7073
a(g476
g541
I4
tp7074
a(g541
g476
I4
tp7075
a(g2
g5
I17
tp7076
a(g5
g2
I17
tp7077
a(g2
g1
I9
tp7078
a(g1
g2
I9
tp7079
a(g2
g8
I30
tp7080
a(g8
g2
I30
tp7081
a(g317
g480
I35
tp7082
a(g480
g317
I35
tp7083
a(g317
g132
I30
tp7084
a(g132
g317
I30
tp7085
a(g317
g547
I17
tp7086
a(g547
g317
I17
tp7087
a(g317
g544
I11
tp7088
a(g544
g317
I11
tp7089
a(g317
g550
I24
tp7090
a(g550
g317
I24
tp7091
a(g302
g299
I18
tp7092
a(g299
g302
I18
tp7093
a(g302
g330
I20
tp7094
a(g330
g302
I20
tp7095
a(g302
g226
I36
tp7096
a(g226
g302
I36
tp7097
a(g302
g229
I32
tp7098
a(g229
g302
I32
tp7099
a(g302
g232
I24
tp7100
a(g232
g302
I24
tp7101
a(g302
g235
I7
tp7102
a(g235
g302
I7
tp7103
a(g302
g523
I34
tp7104
a(g523
g302
I34
tp7105
a(g302
g62
I12
tp7106
a(g62
g302
I12
tp7107
a(g302
g59
I35
tp7108
a(g59
g302
I35
tp7109
a(g302
g333
I15
tp7110
a(g333
g302
I15
tp7111
a(g302
g336
I16
tp7112
a(g336
g302
I16
tp7113
a(g302
g327
I31
tp7114
a(g327
g302
I31
tp7115
a(g302
g526
I30
tp7116
a(g526
g302
I30
tp7117
a(g302
g238
I27
tp7118
a(g238
g302
I27
tp7119
a(g302
g532
I9
tp7120
a(g532
g302
I9
tp7121
a(g302
g308
I35
tp7122
a(g308
g302
I35
tp7123
a(g302
g326
I25
tp7124
a(g326
g302
I25
tp7125
a(g302
g223
I39
tp7126
a(g223
g302
I39
tp7127
a(g302
g529
I24
tp7128
a(g529
g302
I24
tp7129
a(g302
g535
I14
tp7130
a(g535
g302
I14
tp7131
a(g317
g320
I28
tp7132
a(g320
g317
I28
tp7133
a(g317
g125
I39
tp7134
a(g125
g317
I39
tp7135
a(g317
g74
I8
tp7136
a(g74
g317
I8
tp7137
a(g317
g476
I32
tp7138
a(g476
g317
I32
tp7139
a(g317
g129
I34
tp7140
a(g129
g317
I34
tp7141
a(g317
g541
I31
tp7142
a(g541
g317
I31
tp7143
a(g50
g278
I12
tp7144
a(g278
g50
I12
tp7145
a(g50
g269
I36
tp7146
a(g269
g50
I36
tp7147
a(g50
g284
I21
tp7148
a(g284
g50
I21
tp7149
a(g50
g53
I34
tp7150
a(g53
g50
I34
tp7151
a(g50
g272
I21
tp7152
a(g272
g50
I21
tp7153
a(g50
g47
I4
tp7154
a(g47
g50
I4
tp7155
a(g50
g44
I16
tp7156
a(g44
g50
I16
tp7157
a(g50
g281
I19
tp7158
a(g281
g50
I19
tp7159
a(g50
g275
I17
tp7160
a(g275
g50
I17
tp7161
a(g281
g278
I9
tp7162
a(g278
g281
I9
tp7163
a(g281
g284
I2
tp7164
a(g284
g281
I2
tp7165
a(g281
g53
I20
tp7166
a(g53
g281
I20
tp7167
a(g281
g272
I35
tp7168
a(g272
g281
I35
tp7169
a(g281
g47
I23
tp7170
a(g47
g281
I23
tp7171
a(g281
g287
I34
tp7172
a(g287
g281
I34
tp7173
a(g281
g44
I34
tp7174
a(g44
g281
I34
tp7175
a(g281
g50
I19
tp7176
a(g50
g281
I19
tp7177
a(g281
g275
I31
tp7178
a(g275
g281
I31
tp7179
a(g275
g278
I22
tp7180
a(g278
g275
I22
tp7181
a(g275
g41
I28
tp7182
a(g41
g275
I28
tp7183
a(g275
g269
I20
tp7184
a(g269
g275
I20
tp7185
a(g275
g284
I34
tp7186
a(g284
g275
I34
tp7187
a(g275
g266
I28
tp7188
a(g266
g275
I28
tp7189
a(g275
g272
I4
tp7190
a(g272
g275
I4
tp7191
a(g275
g263
I33
tp7192
a(g263
g275
I33
tp7193
a(g275
g47
I14
tp7194
a(g47
g275
I14
tp7195
a(g275
g44
I9
tp7196
a(g44
g275
I9
tp7197
a(g275
g50
I17
tp7198
a(g50
g275
I17
tp7199
a(g275
g281
I31
tp7200
a(g281
g275
I31
tp7201
a(g275
g260
I38
tp7202
a(g260
g275
I38
tp7203
a(g135
g160
I39
tp7204
a(g160
g135
I39
tp7205
a(g135
g197
I25
tp7206
a(g197
g135
I25
tp7207
a(g135
g112
I15
tp7208
a(g112
g135
I15
tp7209
a(g135
g439
I7
tp7210
a(g439
g135
I7
tp7211
a(g135
g139
I4
tp7212
a(g139
g135
I4
tp7213
a(g135
g154
I35
tp7214
a(g154
g135
I35
tp7215
a(g135
g207
I26
tp7216
a(g207
g135
I26
tp7217
a(g135
g204
I26
tp7218
a(g204
g135
I26
tp7219
a(g135
g173
I38
tp7220
a(g173
g135
I38
tp7221
a(g135
g442
I6
tp7222
a(g442
g135
I6
tp7223
a(g135
g445
I4
tp7224
a(g445
g135
I4
tp7225
a(g135
g201
I25
tp7226
a(g201
g135
I25
tp7227
a(g135
g170
I28
tp7228
a(g170
g135
I28
tp7229
a(g135
g163
I20
tp7230
a(g163
g135
I20
tp7231
a(g135
g142
I15
tp7232
a(g142
g135
I15
tp7233
a(g135
g435
I7
tp7234
a(g435
g135
I7
tp7235
a(g135
g598
I24
tp7236
a(g598
g135
I24
tp7237
a(g135
g164
I18
tp7238
a(g164
g135
I18
tp7239
a(g135
g448
I37
tp7240
a(g448
g135
I37
tp7241
a(g135
g432
I34
tp7242
a(g432
g135
I34
tp7243
a(g135
g157
I39
tp7244
a(g157
g135
I39
tp7245
a(g135
g436
I30
tp7246
a(g436
g135
I30
tp7247
a(g135
g602
I16
tp7248
a(g602
g135
I16
tp7249
a(g135
g115
I16
tp7250
a(g115
g135
I16
tp7251
a(g135
g167
I21
tp7252
a(g167
g135
I21
tp7253
a(g135
g108
I14
tp7254
a(g108
g135
I14
tp7255
a(g135
g642
I27
tp7256
a(g642
g135
I27
tp7257
a(g135
g151
I31
tp7258
a(g151
g135
I31
tp7259
a(g460
g636
I23
tp7260
a(g636
g460
I23
tp7261
a(g460
g381
I33
tp7262
a(g381
g460
I33
tp7263
a(g460
g451
I8
tp7264
a(g451
g460
I8
tp7265
a(g460
g405
I16
tp7266
a(g405
g460
I16
tp7267
a(g460
g401
I14
tp7268
a(g401
g460
I14
tp7269
a(g460
g122
I21
tp7270
a(g122
g460
I21
tp7271
a(g460
g408
I19
tp7272
a(g408
g460
I19
tp7273
a(g460
g645
I12
tp7274
a(g645
g460
I12
tp7275
a(g460
g197
I39
tp7276
a(g197
g460
I39
tp7277
a(g460
g382
I33
tp7278
a(g382
g460
I33
tp7279
a(g460
g360
I27
tp7280
a(g360
g460
I27
tp7281
a(g460
g469
I28
tp7282
a(g469
g460
I28
tp7283
a(g460
g411
I24
tp7284
a(g411
g460
I24
tp7285
a(g460
g466
I27
tp7286
a(g466
g460
I27
tp7287
a(g460
g421
I33
tp7288
a(g421
g460
I33
tp7289
a(g460
g649
I15
tp7290
a(g649
g460
I15
tp7291
a(g460
g633
I27
tp7292
a(g633
g460
I27
tp7293
a(g460
g646
I6
tp7294
a(g646
g460
I6
tp7295
a(g460
g457
I3
tp7296
a(g457
g460
I3
tp7297
a(g460
g463
I17
tp7298
a(g463
g460
I17
tp7299
a(g460
g652
I17
tp7300
a(g652
g460
I17
tp7301
a(g460
g598
I31
tp7302
a(g598
g460
I31
tp7303
a(g460
g448
I14
tp7304
a(g448
g460
I14
tp7305
a(g460
g385
I38
tp7306
a(g385
g460
I38
tp7307
a(g460
g424
I12
tp7308
a(g424
g460
I12
tp7309
a(g460
g602
I37
tp7310
a(g602
g460
I37
tp7311
a(g460
g642
I28
tp7312
a(g642
g460
I28
tp7313
a(g460
g420
I34
tp7314
a(g420
g460
I34
tp7315
a(g260
g38
I13
tp7316
a(g38
g260
I13
tp7317
a(g260
g41
I13
tp7318
a(g41
g260
I13
tp7319
a(g260
g269
I17
tp7320
a(g269
g260
I17
tp7321
a(g260
g251
I17
tp7322
a(g251
g260
I17
tp7323
a(g260
g266
I10
tp7324
a(g266
g260
I10
tp7325
a(g260
g257
I4
tp7326
a(g257
g260
I4
tp7327
a(g260
g272
I34
tp7328
a(g272
g260
I34
tp7329
a(g260
g245
I28
tp7330
a(g245
g260
I28
tp7331
a(g260
g254
I15
tp7332
a(g254
g260
I15
tp7333
a(g260
g263
I5
tp7334
a(g263
g260
I5
tp7335
a(g260
g248
I23
tp7336
a(g248
g260
I23
tp7337
a(g260
g241
I37
tp7338
a(g241
g260
I37
tp7339
a(g260
g35
I37
tp7340
a(g35
g260
I37
tp7341
a(g260
g44
I36
tp7342
a(g44
g260
I36
tp7343
a(g260
g275
I38
tp7344
a(g275
g260
I38
tp7345
a(g8
g14
I35
tp7346
a(g14
g8
I35
tp7347
a(g8
g11
I19
tp7348
a(g11
g8
I19
tp7349
a(g8
g5
I12
tp7350
a(g5
g8
I12
tp7351
a(g8
g1
I21
tp7352
a(g1
g8
I21
tp7353
a(g8
g2
I30
tp7354
a(g2
g8
I30
tp7355
a(g223
g226
I2
tp7356
a(g226
g223
I2
tp7357
a(g223
g229
I6
tp7358
a(g229
g223
I6
tp7359
a(g223
g232
I15
tp7360
a(g232
g223
I15
tp7361
a(g223
g235
I32
tp7362
a(g235
g223
I32
tp7363
a(g223
g62
I27
tp7364
a(g62
g223
I27
tp7365
a(g223
g214
I6
tp7366
a(g214
g223
I6
tp7367
a(g223
g217
I5
tp7368
a(g217
g223
I5
tp7369
a(g223
g333
I29
tp7370
a(g333
g223
I29
tp7371
a(g223
g336
I24
tp7372
a(g336
g223
I24
tp7373
a(g223
g211
I12
tp7374
a(g211
g223
I12
tp7375
a(g223
g220
I2
tp7376
a(g220
g223
I2
tp7377
a(g223
g302
I39
tp7378
a(g302
g223
I39
tp7379
a(g223
g210
I9
tp7380
a(g210
g223
I9
tp7381
a(g115
g160
I22
tp7382
a(g160
g115
I22
tp7383
a(g115
g197
I14
tp7384
a(g197
g115
I14
tp7385
a(g115
g112
I3
tp7386
a(g112
g115
I3
tp7387
a(g115
g439
I22
tp7388
a(g439
g115
I22
tp7389
a(g115
g139
I11
tp7390
a(g139
g115
I11
tp7391
a(g115
g154
I18
tp7392
a(g154
g115
I18
tp7393
a(g115
g207
I10
tp7394
a(g207
g115
I10
tp7395
a(g115
g204
I11
tp7396
a(g204
g115
I11
tp7397
a(g115
g173
I38
tp7398
a(g173
g115
I38
tp7399
a(g115
g442
I22
tp7400
a(g442
g115
I22
tp7401
a(g115
g445
I20
tp7402
a(g445
g115
I20
tp7403
a(g115
g201
I12
tp7404
a(g201
g115
I12
tp7405
a(g115
g170
I24
tp7406
a(g170
g115
I24
tp7407
a(g115
g163
I7
tp7408
a(g163
g115
I7
tp7409
a(g115
g142
I3
tp7410
a(g142
g115
I3
tp7411
a(g115
g435
I23
tp7412
a(g435
g115
I23
tp7413
a(g115
g598
I20
tp7414
a(g598
g115
I20
tp7415
a(g115
g164
I3
tp7416
a(g164
g115
I3
tp7417
a(g115
g448
I36
tp7418
a(g448
g115
I36
tp7419
a(g115
g157
I23
tp7420
a(g157
g115
I23
tp7421
a(g115
g602
I14
tp7422
a(g602
g115
I14
tp7423
a(g115
g135
I16
tp7424
a(g135
g115
I16
tp7425
a(g115
g167
I10
tp7426
a(g167
g115
I10
tp7427
a(g115
g108
I5
tp7428
a(g108
g115
I5
tp7429
a(g115
g642
I23
tp7430
a(g642
g115
I23
tp7431
a(g115
g151
I14
tp7432
a(g151
g115
I14
tp7433
a(g210
g226
I11
tp7434
a(g226
g210
I11
tp7435
a(g210
g229
I14
tp7436
a(g229
g210
I14
tp7437
a(g210
g232
I22
tp7438
a(g232
g210
I22
tp7439
a(g210
g235
I39
tp7440
a(g235
g210
I39
tp7441
a(g210
g62
I35
tp7442
a(g62
g210
I35
tp7443
a(g210
g214
I2
tp7444
a(g214
g210
I2
tp7445
a(g210
g217
I4
tp7446
a(g217
g210
I4
tp7447
a(g210
g333
I38
tp7448
a(g333
g210
I38
tp7449
a(g210
g336
I32
tp7450
a(g336
g210
I32
tp7451
a(g210
g211
I3
tp7452
a(g211
g210
I3
tp7453
a(g210
g220
I6
tp7454
a(g220
g210
I6
tp7455
a(g210
g223
I9
tp7456
a(g223
g210
I9
tp7457
a(g167
g160
I21
tp7458
a(g160
g167
I21
tp7459
a(g167
g197
I24
tp7460
a(g197
g167
I24
tp7461
a(g167
g112
I13
tp7462
a(g112
g167
I13
tp7463
a(g167
g439
I26
tp7464
a(g439
g167
I26
tp7465
a(g167
g139
I17
tp7466
a(g139
g167
I17
tp7467
a(g167
g154
I20
tp7468
a(g154
g167
I20
tp7469
a(g167
g207
I14
tp7470
a(g207
g167
I14
tp7471
a(g167
g204
I17
tp7472
a(g204
g167
I17
tp7473
a(g167
g173
I29
tp7474
a(g173
g167
I29
tp7475
a(g167
g442
I25
tp7476
a(g442
g167
I25
tp7477
a(g167
g445
I25
tp7478
a(g445
g167
I25
tp7479
a(g167
g201
I20
tp7480
a(g201
g167
I20
tp7481
a(g167
g170
I15
tp7482
a(g170
g167
I15
tp7483
a(g167
g163
I3
tp7484
a(g163
g167
I3
tp7485
a(g167
g142
I8
tp7486
a(g142
g167
I8
tp7487
a(g167
g435
I26
tp7488
a(g435
g167
I26
tp7489
a(g167
g598
I30
tp7490
a(g598
g167
I30
tp7491
a(g167
g164
I6
tp7492
a(g164
g167
I6
tp7493
a(g167
g157
I23
tp7494
a(g157
g167
I23
tp7495
a(g167
g602
I24
tp7496
a(g602
g167
I24
tp7497
a(g167
g135
I21
tp7498
a(g135
g167
I21
tp7499
a(g167
g115
I10
tp7500
a(g115
g167
I10
tp7501
a(g167
g108
I15
tp7502
a(g108
g167
I15
tp7503
a(g167
g642
I33
tp7504
a(g642
g167
I33
tp7505
a(g167
g151
I17
tp7506
a(g151
g167
I17
tp7507
a(g108
g451
I39
tp7508
a(g451
g108
I39
tp7509
a(g108
g160
I26
tp7510
a(g160
g108
I26
tp7511
a(g108
g197
I12
tp7512
a(g197
g108
I12
tp7513
a(g108
g112
I2
tp7514
a(g112
g108
I2
tp7515
a(g108
g439
I21
tp7516
a(g439
g108
I21
tp7517
a(g108
g139
I10
tp7518
a(g139
g108
I10
tp7519
a(g108
g154
I21
tp7520
a(g154
g108
I21
tp7521
a(g108
g207
I13
tp7522
a(g207
g108
I13
tp7523
a(g108
g204
I12
tp7524
a(g204
g108
I12
tp7525
a(g108
g442
I20
tp7526
a(g442
g108
I20
tp7527
a(g108
g445
I17
tp7528
a(g445
g108
I17
tp7529
a(g108
g201
I11
tp7530
a(g201
g108
I11
tp7531
a(g108
g649
I39
tp7532
a(g649
g108
I39
tp7533
a(g108
g170
I29
tp7534
a(g170
g108
I29
tp7535
a(g108
g163
I12
tp7536
a(g163
g108
I12
tp7537
a(g108
g142
I7
tp7538
a(g142
g108
I7
tp7539
a(g108
g435
I22
tp7540
a(g435
g108
I22
tp7541
a(g108
g652
I39
tp7542
a(g652
g108
I39
tp7543
a(g108
g598
I15
tp7544
a(g598
g108
I15
tp7545
a(g108
g164
I8
tp7546
a(g164
g108
I8
tp7547
a(g108
g448
I31
tp7548
a(g448
g108
I31
tp7549
a(g108
g157
I26
tp7550
a(g157
g108
I26
tp7551
a(g108
g602
I9
tp7552
a(g602
g108
I9
tp7553
a(g108
g135
I14
tp7554
a(g135
g108
I14
tp7555
a(g108
g115
I5
tp7556
a(g115
g108
I5
tp7557
a(g108
g167
I15
tp7558
a(g167
g108
I15
tp7559
a(g108
g642
I18
tp7560
a(g642
g108
I18
tp7561
a(g108
g151
I17
tp7562
a(g151
g108
I17
tp7563
a(g194
g173
I38
tp7564
a(g173
g194
I38
tp7565
a(g194
g176
I22
tp7566
a(g176
g194
I22
tp7567
a(g194
g182
I13
tp7568
a(g182
g194
I13
tp7569
a(g194
g191
I7
tp7570
a(g191
g194
I7
tp7571
a(g194
g188
I9
tp7572
a(g188
g194
I9
tp7573
a(g194
g179
I19
tp7574
a(g179
g194
I19
tp7575
a(g194
g185
I11
tp7576
a(g185
g194
I11
tp7577
a(g179
g173
I20
tp7578
a(g173
g179
I20
tp7579
a(g179
g176
I3
tp7580
a(g176
g179
I3
tp7581
a(g179
g170
I33
tp7582
a(g170
g179
I33
tp7583
a(g179
g182
I7
tp7584
a(g182
g179
I7
tp7585
a(g179
g191
I13
tp7586
a(g191
g179
I13
tp7587
a(g179
g188
I11
tp7588
a(g188
g179
I11
tp7589
a(g179
g194
I19
tp7590
a(g194
g179
I19
tp7591
a(g179
g185
I9
tp7592
a(g185
g179
I9
tp7593
a(g529
g299
I10
tp7594
a(g299
g529
I10
tp7595
a(g529
g514
I29
tp7596
a(g514
g529
I29
tp7597
a(g529
g235
I25
tp7598
a(g235
g529
I25
tp7599
a(g529
g523
I10
tp7600
a(g523
g529
I10
tp7601
a(g529
g517
I27
tp7602
a(g517
g529
I27
tp7603
a(g529
g62
I33
tp7604
a(g62
g529
I33
tp7605
a(g529
g511
I37
tp7606
a(g511
g529
I37
tp7607
a(g529
g59
I24
tp7608
a(g59
g529
I24
tp7609
a(g529
g333
I39
tp7610
a(g333
g529
I39
tp7611
a(g529
g336
I38
tp7612
a(g336
g529
I38
tp7613
a(g529
g296
I28
tp7614
a(g296
g529
I28
tp7615
a(g529
g293
I33
tp7616
a(g293
g529
I33
tp7617
a(g529
g526
I6
tp7618
a(g526
g529
I6
tp7619
a(g529
g238
I22
tp7620
a(g238
g529
I22
tp7621
a(g529
g532
I20
tp7622
a(g532
g529
I20
tp7623
a(g529
g302
I24
tp7624
a(g302
g529
I24
tp7625
a(g529
g520
I24
tp7626
a(g520
g529
I24
tp7627
a(g529
g535
I33
tp7628
a(g535
g529
I33
tp7629
a(g565
g86
I30
tp7630
a(g86
g565
I30
tp7631
a(g565
g562
I2
tp7632
a(g562
g565
I2
tp7633
a(g565
g577
I25
tp7634
a(g577
g565
I25
tp7635
a(g565
g553
I34
tp7636
a(g553
g565
I34
tp7637
a(g565
g323
I38
tp7638
a(g323
g565
I38
tp7639
a(g565
g89
I32
tp7640
a(g89
g565
I32
tp7641
a(g565
g92
I35
tp7642
a(g92
g565
I35
tp7643
a(g565
g586
I37
tp7644
a(g586
g565
I37
tp7645
a(g565
g95
I39
tp7646
a(g95
g565
I39
tp7647
a(g565
g568
I4
tp7648
a(g568
g565
I4
tp7649
a(g565
g583
I36
tp7650
a(g583
g565
I36
tp7651
a(g565
g571
I10
tp7652
a(g571
g565
I10
tp7653
a(g565
g559
I11
tp7654
a(g559
g565
I11
tp7655
a(g565
g556
I20
tp7656
a(g556
g565
I20
tp7657
a(g565
g580
I32
tp7658
a(g580
g565
I32
tp7659
a(g565
g83
I28
tp7660
a(g83
g565
I28
tp7661
a(g565
g574
I15
tp7662
a(g574
g565
I15
tp7663
a(g520
g299
I30
tp7664
a(g299
g520
I30
tp7665
a(g520
g514
I5
tp7666
a(g514
g520
I5
tp7667
a(g520
g618
I22
tp7668
a(g618
g520
I22
tp7669
a(g520
g56
I26
tp7670
a(g56
g520
I26
tp7671
a(g520
g523
I14
tp7672
a(g523
g520
I14
tp7673
a(g520
g517
I2
tp7674
a(g517
g520
I2
tp7675
a(g520
g612
I21
tp7676
a(g612
g520
I21
tp7677
a(g520
g511
I12
tp7678
a(g511
g520
I12
tp7679
a(g520
g507
I16
tp7680
a(g507
g520
I16
tp7681
a(g520
g59
I24
tp7682
a(g59
g520
I24
tp7683
a(g520
g615
I22
tp7684
a(g615
g520
I22
tp7685
a(g520
g605
I20
tp7686
a(g605
g520
I20
tp7687
a(g520
g296
I10
tp7688
a(g296
g520
I10
tp7689
a(g520
g606
I21
tp7690
a(g606
g520
I21
tp7691
a(g520
g508
I19
tp7692
a(g508
g520
I19
tp7693
a(g520
g627
I25
tp7694
a(g627
g520
I25
tp7695
a(g520
g293
I12
tp7696
a(g293
g520
I12
tp7697
a(g520
g526
I18
tp7698
a(g526
g520
I18
tp7699
a(g520
g621
I21
tp7700
a(g621
g520
I21
tp7701
a(g520
g609
I21
tp7702
a(g609
g520
I21
tp7703
a(g520
g287
I28
tp7704
a(g287
g520
I28
tp7705
a(g520
g624
I22
tp7706
a(g624
g520
I22
tp7707
a(g520
g529
I24
tp7708
a(g529
g520
I24
tp7709
a(g371
g495
I22
tp7710
a(g495
g371
I22
tp7711
a(g371
g486
I24
tp7712
a(g486
g371
I24
tp7713
a(g371
g374
I2
tp7714
a(g374
g371
I2
tp7715
a(g371
g498
I23
tp7716
a(g498
g371
I23
tp7717
a(g371
g504
I24
tp7718
a(g504
g371
I24
tp7719
a(g371
g492
I22
tp7720
a(g492
g371
I22
tp7721
a(g371
g489
I22
tp7722
a(g489
g371
I22
tp7723
a(g371
g501
I24
tp7724
a(g501
g371
I24
tp7725
a(g642
g636
I38
tp7726
a(g636
g642
I38
tp7727
a(g642
g451
I20
tp7728
a(g451
g642
I20
tp7729
a(g642
g160
I33
tp7730
a(g160
g642
I33
tp7731
a(g642
g401
I38
tp7732
a(g401
g642
I38
tp7733
a(g642
g645
I21
tp7734
a(g645
g642
I21
tp7735
a(g642
g197
I10
tp7736
a(g197
g642
I10
tp7737
a(g642
g112
I21
tp7738
a(g112
g642
I21
tp7739
a(g642
g439
I34
tp7740
a(g439
g642
I34
tp7741
a(g642
g139
I26
tp7742
a(g139
g642
I26
tp7743
a(g642
g154
I28
tp7744
a(g154
g642
I28
tp7745
a(g642
g207
I23
tp7746
a(g207
g642
I23
tp7747
a(g642
g204
I19
tp7748
a(g204
g642
I19
tp7749
a(g642
g442
I33
tp7750
a(g442
g642
I33
tp7751
a(g642
g445
I29
tp7752
a(g445
g642
I29
tp7753
a(g642
g201
I16
tp7754
a(g201
g642
I16
tp7755
a(g642
g649
I20
tp7756
a(g649
g642
I20
tp7757
a(g642
g646
I23
tp7758
a(g646
g642
I23
tp7759
a(g642
g457
I26
tp7760
a(g457
g642
I26
tp7761
a(g642
g163
I30
tp7762
a(g163
g642
I30
tp7763
a(g642
g142
I26
tp7764
a(g142
g642
I26
tp7765
a(g642
g435
I35
tp7766
a(g435
g642
I35
tp7767
a(g642
g652
I20
tp7768
a(g652
g642
I20
tp7769
a(g642
g598
I3
tp7770
a(g598
g642
I3
tp7771
a(g642
g164
I26
tp7772
a(g164
g642
I26
tp7773
a(g642
g448
I14
tp7774
a(g448
g642
I14
tp7775
a(g642
g157
I32
tp7776
a(g157
g642
I32
tp7777
a(g642
g424
I37
tp7778
a(g424
g642
I37
tp7779
a(g642
g602
I11
tp7780
a(g602
g642
I11
tp7781
a(g642
g135
I27
tp7782
a(g135
g642
I27
tp7783
a(g642
g460
I28
tp7784
a(g460
g642
I28
tp7785
a(g642
g115
I23
tp7786
a(g115
g642
I23
tp7787
a(g642
g167
I33
tp7788
a(g167
g642
I33
tp7789
a(g642
g108
I18
tp7790
a(g108
g642
I18
tp7791
a(g642
g151
I25
tp7792
a(g151
g642
I25
tp7793
a(g151
g160
I8
tp7794
a(g160
g151
I8
tp7795
a(g151
g197
I14
tp7796
a(g197
g151
I14
tp7797
a(g151
g112
I16
tp7798
a(g112
g151
I16
tp7799
a(g151
g439
I37
tp7800
a(g439
g151
I37
tp7801
a(g151
g139
I26
tp7802
a(g139
g151
I26
tp7803
a(g151
g154
I3
tp7804
a(g154
g151
I3
tp7805
a(g151
g207
I4
tp7806
a(g207
g151
I4
tp7807
a(g151
g204
I6
tp7808
a(g204
g151
I6
tp7809
a(g151
g442
I37
tp7810
a(g442
g151
I37
tp7811
a(g151
g445
I34
tp7812
a(g445
g151
I34
tp7813
a(g151
g201
I9
tp7814
a(g201
g151
I9
tp7815
a(g151
g170
I32
tp7816
a(g170
g151
I32
tp7817
a(g151
g163
I14
tp7818
a(g163
g151
I14
tp7819
a(g151
g142
I17
tp7820
a(g142
g151
I17
tp7821
a(g151
g435
I38
tp7822
a(g435
g151
I38
tp7823
a(g151
g598
I23
tp7824
a(g598
g151
I23
tp7825
a(g151
g164
I14
tp7826
a(g164
g151
I14
tp7827
a(g151
g448
I39
tp7828
a(g448
g151
I39
tp7829
a(g151
g157
I9
tp7830
a(g157
g151
I9
tp7831
a(g151
g602
I22
tp7832
a(g602
g151
I22
tp7833
a(g129
g483
I38
tp7834
a(g483
g129
I38
tp7835
a(g129
g480
I26
tp7836
a(g480
g129
I26
tp7837
a(g151
g135
I31
tp7838
a(g135
g151
I31
tp7839
a(g151
g115
I14
tp7840
a(g115
g151
I14
tp7841
a(g151
g167
I17
tp7842
a(g167
g151
I17
tp7843
a(g151
g108
I17
tp7844
a(g108
g151
I17
tp7845
a(g129
g132
I5
tp7846
a(g132
g129
I5
tp7847
a(g129
g538
I20
tp7848
a(g538
g129
I20
tp7849
a(g151
g642
I25
tp7850
a(g642
g151
I25
tp7851
a(g129
g544
I32
tp7852
a(g544
g129
I32
tp7853
a(g541
g483
I22
tp7854
a(g483
g541
I22
tp7855
a(g185
g173
I29
tp7856
a(g173
g185
I29
tp7857
a(g185
g176
I13
tp7858
a(g176
g185
I13
tp7859
a(g535
g299
I30
tp7860
a(g299
g535
I30
tp7861
a(g535
g330
I16
tp7862
a(g330
g535
I16
tp7863
a(g501
g495
I5
tp7864
a(g495
g501
I5
tp7865
a(g420
g365
I32
tp7866
a(g365
g420
I32
tp7867
a(g501
g486
I13
tp7868
a(g486
g501
I13
tp7869
a(g501
g374
I22
tp7870
a(g420
g397
I32
tp7871
a(g397
g420
I32
tp7872
a(g420
g636
I30
tp7873
a(g636
g420
I30
tp7874
a(g420
g339
I16
tp7875
a(g339
g420
I16
tp7876
a(g420
g381
I2
tp7877
a(g381
g420
I2
tp7878
a(g420
g352
I25
tp7879
a(g352
g420
I25
tp7880
a(g420
g349
I25
tp7881
a(g349
g420
I25
tp7882
a(g129
g311
I14
tp7883
a(g311
g129
I14
tp7884
a(g185
g182
I2
tp7885
a(g182
g185
I2
tp7886
a(g129
g327
I34
tp7887
a(g327
g129
I34
tp7888
a(g129
g125
I6
tp7889
a(g125
g129
I6
tp7890
a(g129
g308
I28
tp7891
a(g308
g129
I28
tp7892
a(g129
g326
I38
tp7893
a(g326
g129
I38
tp7894
a(g129
g314
I10
tp7895
a(g314
g129
I10
tp7896
a(g129
g74
I35
tp7897
a(g74
g129
I35
tp7898
a(g129
g68
I19
tp7899
a(g68
g129
I19
tp7900
a(g129
g476
I21
tp7901
a(g476
g129
I21
tp7902
a(g129
g317
I34
tp7903
a(g317
g129
I34
tp7904
a(g129
g541
I17
tp7905
a(g541
g129
I17
tp7906
a(g535
g232
I35
tp7907
a(g232
g535
I35
tp7908
a(g535
g235
I21
tp7909
a(g235
g535
I21
tp7910
a(g185
g191
I3
tp7911
a(g191
g185
I3
tp7912
a(g185
g188
I1
tp7913
a(g188
g185
I1
tp7914
a(g535
g62
I21
tp7915
a(g62
g535
I21
tp7916
a(g535
g333
I20
tp7917
a(g333
g535
I20
tp7918
a(g535
g336
I25
tp7919
a(g336
g535
I25
tp7920
a(g185
g194
I11
tp7921
a(g194
g185
I11
tp7922
a(g185
g179
I9
tp7923
a(g179
g185
I9
tp7924
a(g535
g327
I21
tp7925
a(g327
g535
I21
tp7926
a(g535
g526
I39
tp7927
a(g526
g535
I39
tp7928
a(g535
g238
I25
tp7929
a(g238
g535
I25
tp7930
a(g535
g532
I12
tp7931
a(g532
g535
I12
tp7932
a(g535
g308
I26
tp7933
a(g308
g535
I26
tp7934
a(g535
g326
I18
tp7935
a(g326
g535
I18
tp7936
a(g535
g68
I38
tp7937
a(g68
g535
I38
tp7938
a(g535
g302
I14
tp7939
a(g302
g535
I14
tp7940
a(g535
g529
I33
tp7941
a(g529
g535
I33
tp7942
a(g420
g405
I22
tp7943
a(g405
g420
I22
tp7944
a(g374
g501
I22
tp7945
a(g541
g480
I9
tp7946
a(g480
g541
I9
tp7947
a(g541
g132
I19
tp7948
a(g132
g541
I19
tp7949
a(g541
g538
I15
tp7950
a(g538
g541
I15
tp7951
a(g541
g544
I24
tp7952
a(g544
g541
I24
tp7953
a(g420
g401
I22
tp7954
a(g401
g420
I22
tp7955
a(g420
g122
I37
tp7956
a(g122
g420
I37
tp7957
a(g420
g394
I24
tp7958
a(g394
g420
I24
tp7959
a(g420
g408
I20
tp7960
a(g408
g420
I20
tp7961
a(g420
g343
I16
tp7962
a(g343
g420
I16
tp7963
a(g420
g398
I34
tp7964
a(g398
g420
I34
tp7965
a(g420
g340
I20
tp7966
a(g340
g420
I20
tp7967
a(g420
g391
I16
tp7968
a(g391
g420
I16
tp7969
a(g420
g382
I9
tp7970
a(g382
g420
I9
tp7971
a(g420
g360
I20
tp7972
a(g360
g420
I20
tp7973
a(g420
g469
I35
tp7974
a(g469
g420
I35
tp7975
a(g420
g411
I17
tp7976
a(g411
g420
I17
tp7977
a(g420
g466
I39
tp7978
a(g466
g420
I39
tp7979
a(g420
g421
I9
tp7980
a(g421
g420
I9
tp7981
a(g420
g633
I27
tp7982
a(g633
g420
I27
tp7983
a(g420
g646
I37
tp7984
a(g646
g420
I37
tp7985
a(g420
g457
I35
tp7986
a(g457
g420
I35
tp7987
a(g420
g377
I31
tp7988
a(g377
g420
I31
tp7989
a(g541
g311
I19
tp7990
a(g311
g541
I19
tp7991
a(g541
g327
I36
tp7992
a(g327
g541
I36
tp7993
a(g541
g125
I16
tp7994
a(g125
g541
I16
tp7995
a(g541
g308
I34
tp7996
a(g308
g541
I34
tp7997
a(g541
g314
I15
tp7998
a(g314
g541
I15
tp7999
a(g541
g74
I36
tp8000
a(g74
g541
I36
tp8001
a(g420
g463
I34
tp8002
a(g463
g420
I34
tp8003
a(g420
g357
I30
tp8004
a(g357
g420
I30
tp8005
a(g420
g378
I33
tp8006
a(g378
g420
I33
tp8007
a(g541
g68
I30
tp8008
a(g68
g541
I30
tp8009
a(g541
g476
I4
tp8010
a(g476
g541
I4
tp8011
a(g541
g317
I31
tp8012
a(g317
g541
I31
tp8013
a(g541
g129
I17
tp8014
a(g129
g541
I17
tp8015
a(g501
g498
I2
tp8016
a(g498
g501
I2
tp8017
a(g501
g504
I1
tp8018
a(g504
g501
I1
tp8019
a(g501
g492
I10
tp8020
a(g492
g501
I10
tp8021
a(g420
g630
I38
tp8022
a(g630
g420
I38
tp8023
a(g420
g385
I5
tp8024
a(g385
g420
I5
tp8025
a(g420
g346
I23
tp8026
a(g346
g420
I23
tp8027
a(g420
g424
I23
tp8028
a(g424
g420
I23
tp8029
a(g420
g414
I32
tp8030
a(g414
g420
I32
tp8031
a(g420
g388
I14
tp8032
a(g388
g420
I14
tp8033
a(g420
g460
I34
tp8034
a(g460
g420
I34
tp8035
a(g501
g489
I12
tp8036
a(g489
g501
I12
tp8037
a(g501
g371
I24
tp8038
a(g371
g501
I24
tp8039
a.