(lp0
(S'1767875323'
p1
S'1928136301'
p2
I16
tp3
a(S'1606967716'
p4
S'1928136290'
p5
I25
tp6
a(S'1925449518'
p7
S'1933039913'
p8
I16
tp9
a(S'1927657929'
p10
S'1933039904'
p11
I26
tp12
a(S'1926445418'
p13
S'1928136341'
p14
I36
tp15
a(S'1926299755'
p16
S'1928136232'
p17
I33
tp18
a(S'1924311168'
p19
S'1926390161'
p20
I32
tp21
a(S'1924311236'
p22
S'1926299776'
p23
I14
tp24
a(S'1450232984'
p25
g2
I11
tp26
a(S'1923753475'
p27
S'1923753497'
p28
I10
tp29
a(S'1505832367'
p30
S'281858939'
p31
I16
tp32
a(S'1926390155'
p33
S'1926427449'
p34
I30
tp35
a(S'1504662520'
p36
S'2017459396'
p37
I38
tp38
a(g36
S'1928136340'
p39
I24
tp40
a(S'1450232710'
p41
S'1585304132'
p42
I10
tp43
a(S'1926344335'
p44
S'3151286455'
p45
I13
tp46
a(g23
S'1951503146'
p47
I10
tp48
a(g25
S'1928136282'
p49
I11
tp50
a(S'1924311224'
p51
S'1926390116'
p52
I35
tp53
a(S'1924311114'
p54
S'1976894145'
p55
I17
tp56
a(g13
g37
I38
tp57
a(S'1668187798'
p58
S'1927657849'
p59
I30
tp60
a(S'1926390167'
p61
S'1976894199'
p62
I36
tp63
a(S'1924311108'
p64
S'1947827928'
p65
I33
tp66
a(g25
S'1928136308'
p67
I17
tp68
a(S'1924311246'
p69
g37
I20
tp70
a(S'1924342322'
p71
S'1924342366'
p72
I7
tp73
a(S'1715025799'
p74
S'1715025801'
p75
I4
tp76
a(S'1613270561'
p77
S'1668187802'
p78
I38
tp79
a(g41
S'1450232781'
p80
I34
tp81
a(S'1450232730'
p82
g55
I6
tp83
a(S'1450232788'
p84
S'1926335059'
p85
I18
tp86
a(S'1923744304'
p87
S'281859063'
p88
I24
tp89
a(S'1924311188'
p90
g52
I13
tp91
a(g78
g27
I38
tp92
a(S'1923744301'
p93
g88
I20
tp94
a(S'1928136328'
p95
g14
I11
tp96
a(S'1926427506'
p97
S'1933039891'
p98
I14
tp99
a(g69
S'1976894135'
p100
I17
tp101
a(g4
g14
I26
tp102
a(S'1951503193'
p103
g55
I3
tp104
a(g64
S'1926299702'
p105
I2
tp106
a(g69
g47
I37
tp107
a(S'1925449524'
p108
S'1933039879'
p109
I38
tp110
a(g25
S'1936239778'
p111
I15
tp112
a(S'1926299696'
p113
g111
I37
tp114
a(g16
g37
I33
tp115
a(S'1924311213'
p116
g85
I30
tp117
a(S'1450232689'
p118
S'1924311191'
p119
I27
tp120
a(S'1926335063'
p121
S'2033799172'
p122
I13
tp123
a(S'1926335103'
p124
g44
I36
tp125
a(g118
g100
I20
tp126
a(S'1863635337'
p127
S'b-Engineering 3'
p128
I32
tp129
a(S'1923744281'
p130
g122
I6
tp131
a(S'1924285123'
p132
S'1976894083'
p133
I35
tp134
a(S'1450232674'
p135
S'1976894203'
p136
I15
tp137
a(S'1924285146'
p138
S'1924285155'
p139
I13
tp140
a(S'1863635342'
p141
g45
I14
tp142
a(g87
S'1976894055'
p143
I38
tp144
a(g4
g17
I31
tp145
a(S'1976894052'
p146
S'1976894069'
p147
I28
tp148
a(S'1951503205'
p149
S'1976894045'
p150
I17
tp151
a(g93
S'1976894136'
p152
I38
tp153
a(g77
g44
I34
tp154
a(S'1923744337'
p155
g10
I35
tp156
a(g118
g20
I25
tp157
a(g147
S'1976894148'
p158
I21
tp159
a(S'1923744311'
p160
S'1976894161'
p161
I30
tp162
a(g36
g69
I27
tp163
a(g19
S'1926390140'
p164
I18
tp165
a(g22
g17
I38
tp166
a(g69
S'2017459398'
p167
I17
tp168
a(S'1928136235'
p169
g167
I29
tp170
a(S'1450232656'
p171
S'1932767871'
p172
I26
tp173
a(g39
g37
I14
tp174
a(S'1927657765'
p175
S'281858958'
p176
I39
tp177
a(S'1924285105'
p178
S'1926299703'
p179
I13
tp180
a(g4
g172
I31
tp181
a(g169
g37
I34
tp182
a(S'1926427394'
p183
S'1928136298'
p184
I38
tp185
a(g61
g100
I25
tp186
a(g23
g67
I24
tp187
a(S'1926390110'
p188
g183
I1
tp189
a(g135
g78
I30
tp190
a(g52
g13
I25
tp191
a(g178
S'1924285211'
p192
I4
tp193
a(g118
g34
I30
tp194
a(S'1928136275'
p195
g184
I34
tp196
a(g77
S'1863635344'
p197
I38
tp198
a(g113
S'1936239789'
p199
I35
tp200
a(g49
g2
I3
tp201
a(S'1505832314'
p202
S'2888358094'
p203
I8
tp204
a(S'1450232907'
p205
g22
I4
tp206
a(S'1450232878'
p207
g16
I13
tp208
a(S'1926390154'
p209
g33
I3
tp210
a(S'1926445433'
p211
g62
I38
tp212
a(g84
g121
I16
tp213
a(g135
S'1976894177'
p214
I9
tp215
a(g16
S'1932767863'
p216
I32
tp217
a(S'1976894086'
p218
g161
I32
tp219
a(g5
g47
I29
tp220
a(g93
S'481695399'
p221
I11
tp222
a(g17
S'1928136260'
p223
I22
tp224
a(S'1923744306'
p225
S'1976894100'
p226
I18
tp227
a(S'1926335104'
p228
S'3151286454'
p229
I10
tp230
a(g77
g121
I18
tp231
a(S'1863635340'
p232
g229
I15
tp233
a(S'1450232668'
p234
g130
I20
tp235
a(g149
g55
I4
tp236
a(g119
g167
I38
tp237
a(g58
g85
I29
tp238
a(g141
S'3151286456'
p239
I11
tp240
a(g39
S'2017459402'
p241
I21
tp242
a(g61
g34
I31
tp243
a(g118
S'1924311179'
p244
I36
tp245
a(g179
S'281858921'
p246
I22
tp247
a(g155
S'281859018'
p248
I16
tp249
a(S'1505832338'
p250
g77
I37
tp251
a(g51
S'1928136305'
p252
I19
tp253
a(g2
g95
I36
tp254
a(g51
g14
I21
tp255
a(g188
g211
I16
tp256
a(g4
g167
I25
tp257
a(g135
g59
I26
tp258
a(g225
S'1947819572'
p259
I38
tp260
a(g152
S'1976894200'
p261
I36
tp262
a(g158
S'1999591895'
p263
I25
tp264
a(g209
S'1926390166'
p265
I5
tp266
a(g209
g61
I31
tp267
a(g244
S'1926390115'
p268
I3
tp269
a(S'1924285209'
p270
g116
I37
tp271
a(g119
g61
I22
tp272
a(S'1924285124'
p273
g138
I38
tp274
a(g130
g108
I28
tp275
a(S'1450232665'
p276
g71
I3
tp277
a(S'1923744333'
p278
g109
I32
tp279
a(g25
g22
I6
tp280
a(g77
g232
I27
tp281
a(g118
g183
I23
tp282
a(g23
g14
I33
tp283
a(S'1925449471'
p284
g11
I26
tp285
a(g276
g72
I10
tp286
a(S'1923744328'
p287
g259
I24
tp288
a(g155
g218
I32
tp289
a(S'1932767831'
p290
g172
I30
tp291
a(g290
S'1932767884'
p292
I9
tp293
a(S'1976894154'
p294
S'1976894158'
p295
I21
tp296
a(g77
g122
I31
tp297
a(g105
g65
I35
tp298
a(S'1924311233'
p299
S'1976894096'
p300
I21
tp301
a(S'1923744259'
p302
g59
I17
tp303
a(g41
g16
I15
tp304
a(g27
S'1924285189'
p305
I39
tp306
a(g229
g45
I8
tp307
a(g250
g28
I28
tp308
a(g4
g1
I24
tp309
a(g11
S'281858988'
p310
I38
tp311
a(g19
S'1926390113'
p312
I37
tp313
a(S'1928136316'
p314
g290
I4
tp315
a(g252
g37
I17
tp316
a(S'1926390164'
p317
g128
I36
tp318
a(g121
g229
I29
tp319
a(g214
g136
I11
tp320
a(S'1927657925'
p321
g248
I33
tp322
a(g218
g263
I34
tp323
a(S'1924285106'
p324
g246
I28
tp325
a(S'1976894144'
p326
g136
I6
tp327
a(g51
g37
I23
tp328
a(S'1933039833'
p329
S'1933039910'
p330
I10
tp331
a(g13
g62
I32
tp332
a(g10
g259
I28
tp333
a(g178
g324
I38
tp334
a(S'1926390111'
p335
g20
I23
tp336
a(g119
g164
I25
tp337
a(S'1450232907'
p338
g113
I30
tp339
a(g302
S'1923744324'
p340
I18
tp341
a(g340
g59
I34
tp342
a(S'1933039842'
p343
S'1983396672'
p344
I3
tp345
a(g22
g47
I25
tp346
a(g82
g28
I22
tp347
a(g67
g172
I26
tp348
a(S'1926427522'
p349
g98
I23
tp350
a(g22
g16
I9
tp351
a(g211
g100
I27
tp352
a(S'1926427461'
p353
g13
I37
tp354
a(g338
g223
I13
tp355
a(S'1926390155'
p356
g353
I1
tp357
a(g77
g127
I39
tp358
a(g164
g183
I16
tp359
a(S'1923744268'
p360
g287
I30
tp361
a(g49
g95
I34
tp362
a(g1
g23
I25
tp363
a(g299
g136
I25
tp364
a(g100
g37
I22
tp365
a(g175
g246
I36
tp366
a(g61
g252
I33
tp367
a(g61
g183
I17
tp368
a(g23
g17
I33
tp369
a(g244
g317
I9
tp370
a(S'1924311188'
p371
g265
I1
tp372
a(g87
g161
I31
tp373
a(g74
S'281858891'
p374
I51
tp375
a(g164
g252
I38
tp376
a(g55
g136
I10
tp377
a(g338
g199
I12
tp378
a(g85
g229
I35
tp379
a(g58
g229
I33
tp380
a(S'1924285118'
p381
S'1924285130'
p382
I5
tp383
a(g58
g116
I16
tp384
a(g228
S'1926344379'
p385
I26
tp386
a(g30
g273
I27
tp387
a(g132
g139
I2
tp388
a(g265
g34
I31
tp389
a(g119
g100
I38
tp390
a(g52
g33
I24
tp391
a(g80
g207
I35
tp392
a(g61
g211
I2
tp393
a(g317
g211
I25
tp394
a(g41
g172
I20
tp395
a(g19
S'2017459391'
p396
I27
tp397
a(S'1551379939'
p398
g178
I34
tp399
a(g41
g199
I24
tp400
a(g195
g241
I23
tp401
a(g340
g124
I15
tp402
a(g146
g295
I5
tp403
a(g232
g239
I2
tp404
a(g14
g100
I26
tp405
a(S'1926390115'
p406
S'1926427405'
p407
I76
tp408
a(g223
g396
I39
tp409
a(g54
g136
I20
tp410
a(g312
g353
I26
tp411
a(g360
g11
I28
tp412
a(g1
g223
I14
tp413
a(g141
g229
I22
tp414
a(g225
g161
I36
tp415
a(g335
g34
I32
tp416
a(g121
g228
I18
tp417
a(g211
g65
I35
tp418
a(g207
g223
I8
tp419
a(g195
g100
I28
tp420
a(S'281859004'
p421
g248
I40
tp422
a(g64
g252
I14
tp423
a(g287
g108
I34
tp424
a(g171
g2
I7
tp425
a(g1
g113
I28
tp426
a(g5
g292
I39
tp427
a(g209
g317
I8
tp428
a(g229
g239
I12
tp429
a(g192
g179
I10
tp430
a(g147
g152
I6
tp431
a(S'1976894133'
p432
g161
I9
tp433
a(g382
g179
I28
tp434
a(g77
g302
I24
tp435
a(g5
g314
I26
tp436
a(g80
g67
I29
tp437
a(g244
g312
I24
tp438
a(g398
g133
I16
tp439
a(g299
g55
I22
tp440
a(S'1923744323'
p441
g175
I23
tp442
a(g147
g218
I38
tp443
a(g39
g47
I26
tp444
a(g118
g33
I38
tp445
a(g250
g45
I39
tp446
a(g49
g216
I21
tp447
a(S'1926390146'
p448
g61
I25
tp449
a(g55
g214
I1
tp450
a(g225
g218
I10
tp451
a(g244
g52
I21
tp452
a(g25
S'1924311195'
p453
I10
tp454
a(g160
g143
I37
tp455
a(g287
g7
I39
tp456
a(g42
g95
I37
tp457
a(g36
g52
I39
tp458
a(g324
g31
I17
tp459
a(g188
g335
I22
tp460
a(g207
g23
I17
tp461
a(g8
g122
I36
tp462
a(g27
S'1976894068'
p463
I20
tp464
a(g343
S'1933039929'
p465
I9
tp466
a(g19
g34
I39
tp467
a(g105
g37
I21
tp468
a(S'1924285157'
p469
g179
I19
tp470
a(S'1976894058'
p471
g294
I16
tp472
a(g13
g211
I9
tp473
a(S'1923753475'
p474
g150
I11
tp475
a(g226
g152
I30
tp476
a(g149
g326
I8
tp477
a(g232
g116
I32
tp478
a(g130
g340
I35
tp479
a(g284
g310
I11
tp480
a(g216
g172
I0
tp481
a(g121
g310
I24
tp482
a(g171
S'1450232746'
p483
I21
tp484
a(g161
g263
I2
tp485
a(g234
g278
I11
tp486
a(g294
g261
I11
tp487
a(g58
g127
I18
tp488
a(g19
g14
I25
tp489
a(g75
g382
I10
tp490
a(g184
g14
I33
tp491
a(g160
g226
I37
tp492
a(g147
S'281859032'
p493
I30
tp494
a(g42
g290
I39
tp495
a(g171
g80
I32
tp496
a(g98
g330
I13
tp497
a(g261
S'2016012246'
p498
I11
tp499
a(g19
g241
I13
tp500
a(g207
g199
I21
tp501
a(g244
g211
I31
tp502
a(g453
g67
I20
tp503
a(S'1450232698'
p504
g54
I29
tp505
a(g22
g2
I14
tp506
a(g58
g78
I26
tp507
a(g207
g67
I6
tp508
a(g27
S'1976894047'
p509
I5
tp510
a(g223
g195
I39
tp511
a(g118
g39
I33
tp512
a(g218
g248
I27
tp513
a(g16
g396
I33
tp514
a(g61
g14
I37
tp515
a(g1
g16
I25
tp516
a(g483
g95
I22
tp517
a(g312
g33
I26
tp518
a(g64
g188
I36
tp519
a(g504
g116
I25
tp520
a(g119
g20
I18
tp521
a(g90
g128
I37
tp522
a(g232
g197
I12
tp523
a(S'1924311120'
p524
g55
I19
tp525
a(g312
g169
I37
tp526
a(g41
g23
I18
tp527
a(g44
g385
I4
tp528
a(g36
g211
I37
tp529
a(g4
g37
I24
tp530
a(g61
g65
I37
tp531
a(g146
g261
I15
tp532
a(g41
g216
I20
tp533
a(g108
S'1933039841'
p534
I21
tp535
a(g14
g47
I23
tp536
a(g22
g49
I16
tp537
a(g504
g58
I20
tp538
a(g141
g44
I2
tp539
a(g250
g116
I30
tp540
a(g119
g265
I35
tp541
a(g28
g463
I31
tp542
a(g188
g61
I18
tp543
a(g398
g175
I17
tp544
a(g49
g5
I18
tp545
a(g407
g465
I22
tp546
a(g504
g77
I33
tp547
a(g42
g172
I11
tp548
a(g483
g199
I31
tp549
a(g74
g382
I11
tp550
a(g22
g95
I39
tp551
a(g252
g167
I12
tp552
a(g119
g13
I27
tp553
a(g28
g509
I16
tp554
a(g265
g353
I9
tp555
a(g105
g183
I35
tp556
a(g109
g98
I36
tp557
a(g207
g5
I22
tp558
a(g273
g192
I14
tp559
a(g5
g2
I20
tp560
a(g130
S'1926335059'
p561
I9
tp562
a(g119
g188
I20
tp563
a(g228
g44
I30
tp564
a(g338
g67
I14
tp565
a(g276
S'1924342305'
p566
I16
tp567
a(g169
g95
I27
tp568
a(S'1923744340'
p569
g214
I15
tp570
a(g305
g31
I21
tp571
a(g524
g509
I18
tp572
a(g135
g103
I7
tp573
a(g97
g349
I22
tp574
a(g49
g199
I24
tp575
a(g234
g85
I28
tp576
a(g84
g58
I12
tp577
a(g398
g192
I38
tp578
a(S'2888358088'
p579
S'2888358091'
p580
I15
tp581
a(g90
g183
I13
tp582
a(g225
g263
I38
tp583
a(g80
g72
I27
tp584
a(g463
g136
I4
tp585
a(g566
S'339375701'
p586
I2
tp587
a(g483
g1
I16
tp588
a(g119
g14
I33
tp589
a(g25
g113
I33
tp590
a(g95
g241
I30
tp591
a(g64
S'1924311246'
p592
I2
tp593
a(g184
g167
I39
tp594
a(g287
g155
I28
tp595
a(g302
g121
I39
tp596
a(g27
g59
I34
tp597
a(g118
g188
I25
tp598
a(g223
g95
I31
tp599
a(g119
g252
I27
tp600
a(g132
g138
I10
tp601
a(g273
g133
I7
tp602
a(g103
g463
I8
tp603
a(g169
g184
I10
tp604
a(g13
g169
I38
tp605
a(g360
g7
I11
tp606
a(g67
g47
I33
tp607
a(g58
g124
I24
tp608
a(g178
g246
I13
tp609
a(g265
g183
I15
tp610
a(g167
g241
I18
tp611
a(g61
g353
I33
tp612
a(g188
g33
I24
tp613
a(g118
g14
I35
tp614
a(g59
g326
I35
tp615
a(g16
g49
I11
tp616
a(g59
g103
I33
tp617
a(g39
g167
I9
tp618
a(g295
g263
I37
tp619
a(g42
g1
I4
tp620
a(g250
g27
I33
tp621
a(g103
g149
I2
tp622
a(g197
g385
I10
tp623
a(g64
g61
I21
tp624
a(g398
g469
I28
tp625
a(S'1923744286'
p626
g54
I12
tp627
a(g80
g1
I38
tp628
a(g10
S'1933039889'
p629
I35
tp630
a(g504
g626
I28
tp631
a(g171
g17
I26
tp632
a(g232
g45
I6
tp633
a(S'1505832366'
p634
S'281858878'
p635
I26
tp636
a(g407
g329
I22
tp637
a(g41
g49
I5
tp638
a(g87
g152
I35
tp639
a(g116
g229
I17
tp640
a(g453
g47
I28
tp641
a(g197
g229
I24
tp642
a(g82
g34
I36
tp643
a(g406
g356
I2
tp644
a(g566
g72
I6
tp645
a(g569
g149
I11
tp646
a(g95
g65
I38
tp647
a(g42
g223
I10
tp648
a(g25
g95
I33
tp649
a(g188
g353
I24
tp650
a(g36
g65
I8
tp651
a(g118
g90
I31
tp652
a(g407
g98
I24
tp653
a(g61
g39
I34
tp654
a(g569
g326
I19
tp655
a(g78
g103
I37
tp656
a(g398
g273
I24
tp657
a(g74
g138
I17
tp658
a(g113
g17
I29
tp659
a(g130
g284
I15
tp660
a(g463
g176
I38
tp661
a(g192
S'1924285220'
p662
I19
tp663
a(g407
g349
I2
tp664
a(g178
g139
I15
tp665
a(g118
g353
I37
tp666
a(g122
g310
I19
tp667
a(g164
g34
I27
tp668
a(g11
g122
I39
tp669
a(g25
g167
I38
tp670
a(g504
g228
I38
tp671
a(g244
g448
I9
tp672
a(g139
g246
I27
tp673
a(g17
g47
I35
tp674
a(g41
g1
I15
tp675
a(g118
g211
I9
tp676
a(g340
g561
I25
tp677
a(g78
g302
I14
tp678
a(g132
g662
I6
tp679
a(g95
g39
I13
tp680
a(g17
g67
I26
tp681
a(g25
g199
I15
tp682
a(g178
g138
I28
tp683
a(g119
g65
I15
tp684
a(g483
g4
I7
tp685
a(g13
g167
I37
tp686
a(g90
g61
I26
tp687
a(g278
g7
I4
tp688
a(g287
g534
I32
tp689
a(g493
g88
I37
tp690
a(g471
g295
I38
tp691
a(g69
g52
I36
tp692
a(g93
g161
I35
tp693
a(g135
g28
I23
tp694
a(g335
g52
I21
tp695
a(g207
g111
I22
tp696
a(g64
g184
I34
tp697
a(g244
g353
I3
tp698
a(g178
g133
I17
tp699
a(S'281858862'
p700
g635
I32
tp701
a(g135
g27
I14
tp702
a(g509
g463
I15
tp703
a(g524
g463
I19
tp704
a(g509
g214
I8
tp705
a(g448
g211
I23
tp706
a(g69
g188
I36
tp707
a(g75
g381
I12
tp708
a(g171
g1
I20
tp709
a(g119
g51
I27
tp710
a(g105
g14
I18
tp711
a(g28
g59
I36
tp712
a(g483
g396
I32
tp713
a(g385
g229
I17
tp714
a(g80
g172
I36
tp715
a(g80
S'1924342320'
p716
I38
tp717
a(g2
g172
I22
tp718
a(g52
g61
I19
tp719
a(g64
g164
I26
tp720
a(g195
S'1928136341'
p721
I2
tp722
a(g78
g59
I4
tp723
a(g569
g474
I7
tp724
a(g152
g263
I10
tp725
a(g338
g25
I4
tp726
a(g195
g95
I8
tp727
a(g179
g133
I30
tp728
a(g209
g353
I4
tp729
a(g25
g195
I39
tp730
a(g329
g344
I5
tp731
a(g335
g312
I23
tp732
a(g77
g270
I32
tp733
a(g223
g67
I15
tp734
a(g197
g270
I8
tp735
a(g268
g209
I4
tp736
a(g14
g167
I6
tp737
a(g335
g353
I4
tp738
a(g211
g169
I34
tp739
a(g127
g340
I27
tp740
a(g317
g34
I34
tp741
a(g59
g463
I35
tp742
a(g453
g5
I38
tp743
a(g36
g169
I4
tp744
a(g360
g108
I5
tp745
a(g302
g228
I29
tp746
a(g143
g263
I15
tp747
a(g716
g71
I19
tp748
a(g20
g353
I26
tp749
a(g54
g149
I16
tp750
a(g27
g176
I26
tp751
a(g225
g248
I19
tp752
a(g569
g176
I19
tp753
a(g19
g211
I17
tp754
a(g483
g195
I30
tp755
a(g396
g241
I17
tp756
a(g36
g95
I30
tp757
a(g69
g211
I23
tp758
a(g483
g23
I10
tp759
a(g41
g5
I19
tp760
a(g77
g141
I35
tp761
a(g270
g45
I11
tp762
a(g130
g310
I13
tp763
a(g268
g34
I32
tp764
a(S'1821041631'
p765
g226
I23
tp766
a(g10
g421
I19
tp767
a(g90
g312
I15
tp768
a(g218
g432
I22
tp769
a(g27
g103
I12
tp770
a(g244
g34
I30
tp771
a(g34
g353
I28
tp772
a(g164
g100
I28
tp773
a(g149
g136
I15
tp774
a(g305
g175
I25
tp775
a(g51
g39
I19
tp776
a(g232
g228
I24
tp777
a(g16
g195
I36
tp778
a(g207
g25
I12
tp779
a(g1
g216
I6
tp780
a(g90
g317
I2
tp781
a(g69
g396
I19
tp782
a(g158
g261
I22
tp783
a(S'1450232878'
p784
g205
I9
tp785
a(g100
g396
I23
tp786
a(g141
g270
I4
tp787
a(g82
g54
I11
tp788
a(g124
g45
I23
tp789
a(g84
g78
I39
tp790
a(g116
g45
I25
tp791
a(g69
g184
I32
tp792
a(g716
g72
I13
tp793
a(g30
g246
I24
tp794
a(g80
g42
I36
tp795
a(g30
g178
I36
tp796
a(g223
g111
I26
tp797
a(g312
g52
I4
tp798
a(g278
g534
I19
tp799
a(g2
g111
I23
tp800
a(g100
g167
I23
tp801
a(g51
g169
I30
tp802
a(g82
g463
I9
tp803
a(g469
g662
I28
tp804
a(g524
g149
I18
tp805
a(g93
g263
I35
tp806
a(g338
g2
I10
tp807
a(g75
g179
I25
tp808
a(g118
g169
I38
tp809
a(g321
g10
I20
tp810
a(g340
g45
I32
tp811
a(g7
g108
I6
tp812
a(g118
g52
I25
tp813
a(g188
g209
I20
tp814
a(g216
g292
I39
tp815
a(g42
g2
I11
tp816
a(g146
g263
I32
tp817
a(g22
g172
I37
tp818
a(g202
S'281858836'
p819
I21
tp820
a(g124
g228
I6
tp821
a(g626
g103
I20
tp822
a(g330
g344
I5
tp823
a(g290
S'1932767873'
p824
I25
tp825
a(g152
g295
I27
tp826
a(g207
g1
I18
tp827
a(g626
g136
I31
tp828
a(g317
g61
I27
tp829
a(g1
g95
I37
tp830
a(g51
g13
I15
tp831
a(g17
g5
I6
tp832
a(g103
g300
I2
tp833
a(g77
g310
I39
tp834
a(g312
g20
I4
tp835
a(g273
g469
I5
tp836
a(g302
g150
I35
tp837
a(g116
g121
I24
tp838
a(g118
g209
I35
tp839
a(g30
g398
I9
tp840
a(g207
g42
I13
tp841
a(g276
S'1924342249'
p842
I13
tp843
a(g13
g252
I33
tp844
a(g324
g133
I20
tp845
a(g113
g223
I29
tp846
a(g149
g463
I10
tp847
a(g51
g211
I20
tp848
a(g147
g161
I6
tp849
a(g119
S'1926427394'
p850
I20
tp851
a(g36
g396
I37
tp852
a(g118
g195
I38
tp853
a(g483
g5
I18
tp854
a(g64
g396
I19
tp855
a(g44
g229
I21
tp856
a(g23
g95
I24
tp857
a(g132
g192
I13
tp858
a(g25
g396
I36
tp859
a(g84
g228
I25
tp860
a(g84
g77
I21
tp861
a(g463
g326
I1
tp862
a(g432
g152
I22
tp863
a(g90
g33
I11
tp864
a(g116
g44
I38
tp865
a(g118
g396
I38
tp866
a(g59
g136
I37
tp867
a(g19
g69
I12
tp868
a(g228
g310
I37
tp869
a(g469
g246
I11
tp870
a(g226
g263
I20
tp871
a(g41
g453
I21
tp872
a(g453
g22
I3
tp873
a(g214
g176
I32
tp874
a(g150
g136
I28
tp875
a(g80
g113
I13
tp876
a(g338
g216
I32
tp877
a(g765
g225
I9
tp878
a(g51
g164
I22
tp879
a(g259
g421
I28
tp880
a(g765
g432
I30
tp881
a(g118
g105
I18
tp882
a(g90
g34
I32
tp883
a(g152
g158
I15
tp884
a(g252
g100
I27
tp885
a(g42
g216
I10
tp886
a(g164
g211
I5
tp887
a(g16
g67
I20
tp888
a(g4
g49
I17
tp889
a(g19
g51
I4
tp890
a(g4
g216
I30
tp891
a(g36
g105
I32
tp892
a(g158
g294
I33
tp893
a(g171
g111
I21
tp894
a(g36
g184
I6
tp895
a(g42
g453
I30
tp896
a(g108
g122
I34
tp897
a(g93
g147
I36
tp898
a(g130
g278
I20
tp899
a(g302
g54
I35
tp900
a(g143
g261
I32
tp901
a(g226
g161
I18
tp902
a(g146
g143
I17
tp903
a(g103
g509
I6
tp904
a(g244
g183
I22
tp905
a(g278
g121
I35
tp906
a(g463
g62
I27
tp907
a(g23
g167
I30
tp908
a(g27
g524
I19
tp909
a(g103
g176
I32
tp910
a(g74
g381
I11
tp911
a(g626
g299
I10
tp912
a(g232
g141
I9
tp913
a(g338
g42
I22
tp914
a(g82
g62
I36
tp915
a(g634
g374
I23
tp916
a(g25
g42
I22
tp917
a(g349
g465
I21
tp918
a(g77
g116
I8
tp919
a(g305
g509
I38
tp920
a(g284
g109
I34
tp921
a(g209
g34
I30
tp922
a(g105
g169
I28
tp923
a(g10
g534
I24
tp924
a(g225
g432
I26
tp925
a(g2
g199
I22
tp926
a(g326
g55
I3
tp927
a(g223
g199
I26
tp928
a(g51
g100
I11
tp929
a(g103
g62
I35
tp930
a(g324
g273
I28
tp931
a(g626
g150
I4
tp932
a(g78
g149
I39
tp933
a(g135
g150
I13
tp934
a(g382
g138
I9
tp935
a(g250
g150
I22
tp936
a(g188
g268
I24
tp937
a(g195
g252
I8
tp938
a(g382
g139
I22
tp939
a(g232
g340
I39
tp940
a(g448
g353
I12
tp941
a(g97
g465
I13
tp942
a(g569
g55
I16
tp943
a(g244
g90
I8
tp944
a(g84
g122
I21
tp945
a(g483
g167
I32
tp946
a(g7
g11
I25
tp947
a(g234
g284
I10
tp948
a(S'1933039879'
p949
g629
I32
tp950
a(g259
g248
I27
tp951
a(g207
g17
I25
tp952
a(g41
g95
I39
tp953
a(g25
g223
I12
tp954
a(g105
g312
I39
tp955
a(g28
g524
I25
tp956
a(S'1450232746'
p957
S'1585304132'
p958
I15
tp959
a(g164
g209
I27
tp960
a(g278
g122
I24
tp961
a(g244
g13
I36
tp962
a(g113
g16
I35
tp963
a(g23
g5
I27
tp964
a(g250
g228
I39
tp965
a(g483
g216
I22
tp966
a(g30
g441
I34
tp967
a(g116
g228
I13
tp968
a(g164
g20
I18
tp969
a(g340
g122
I31
tp970
a(g64
g14
I16
tp971
a(g147
g226
I24
tp972
a(g23
g195
I31
tp973
a(g164
g317
I24
tp974
a(g143
g493
I39
tp975
a(g14
g396
I10
tp976
a(g42
g5
I9
tp977
a(g252
g14
I6
tp978
a(g164
g13
I8
tp979
a(g132
g382
I19
tp980
a(g287
g421
I8
tp981
a(g263
g498
I36
tp982
a(g25
g216
I32
tp983
a(g232
g385
I2
tp984
a(g324
g305
I34
tp985
a(g69
g61
I22
tp986
a(g250
g59
I21
tp987
a(g504
g302
I10
tp988
a(g171
g42
I15
tp989
a(g20
g184
I36
tp990
a(g207
g113
I22
tp991
a(g78
g299
I18
tp992
a(g1
g67
I21
tp993
a(g158
g295
I12
tp994
a(g441
g324
I31
tp995
a(g509
g136
I19
tp996
a(g13
g195
I38
tp997
a(g109
g11
I13
tp998
a(g124
g229
I17
tp999
a(g58
g228
I26
tp1000
a(g118
g448
I30
tp1001
a(g30
g469
I32
tp1002
a(g453
g111
I5
tp1003
a(g19
g37
I27
tp1004
a(g1
g47
I27
tp1005
a(g302
g45
I37
tp1006
a(g135
g300
I9
tp1007
a(g28
g149
I21
tp1008
a(g152
g493
I34
tp1009
a(g54
g524
I2
tp1010
a(g504
g524
I27
tp1011
a(g47
g396
I20
tp1012
a(g305
g300
I39
tp1013
a(g312
g65
I32
tp1014
a(g407
g343
I23
tp1015
a(g184
g65
I4
tp1016
a(g232
g124
I29
tp1017
a(g78
g127
I26
tp1018
a(g329
g109
I38
tp1019
a(g765
g218
I20
tp1020
a(g207
g4
I23
tp1021
a(g381
g139
I27
tp1022
a(g146
g158
I7
tp1023
a(g36
g19
I37
tp1024
a(g95
g47
I14
tp1025
a(g22
g67
I17
tp1026
a(g78
g116
I30
tp1027
a(g119
g241
I38
tp1028
a(g211
g184
I39
tp1029
a(g23
g199
I23
tp1030
a(g270
g385
I2
tp1031
a(g211
g252
I34
tp1032
a(g381
g662
I19
tp1033
a(g188
g312
I5
tp1034
a(g207
g22
I14
tp1035
a(g80
g842
I29
tp1036
a(g84
g130
I26
tp1037
a(g77
g228
I5
tp1038
a(g82
g78
I34
tp1039
a(g77
g239
I25
tp1040
a(g93
g87
I4
tp1041
a(g31
g176
I34
tp1042
a(S'1926299704'
p1043
g175
I15
tp1044
a(g41
g4
I22
tp1045
a(g143
g432
I27
tp1046
a(g36
g20
I37
tp1047
a(g1
g199
I39
tp1048
a(g493
g221
I28
tp1049
a(g335
g265
I6
tp1050
a(g250
g103
I39
tp1051
a(g34
g136
I24
tp1052
a(g95
g37
I15
tp1053
a(g71
g586
I11
tp1054
a(S'1450232746'
p1055
g223
I9
tp1056
a(g160
g88
I28
tp1057
a(g49
g111
I25
tp1058
a(g300
g62
I35
tp1059
a(g28
g176
I26
tp1060
a(g64
g51
I5
tp1061
a(g80
g586
I31
tp1062
a(g132
g179
I10
tp1063
a(g147
g295
I33
tp1064
a(g209
g13
I35
tp1065
a(g171
g113
I19
tp1066
a(g82
g150
I15
tp1067
a(g93
g160
I7
tp1068
a(g1
g453
I35
tp1069
a(g335
g268
I2
tp1070
a(g299
g509
I20
tp1071
a(g77
g85
I24
tp1072
a(g34
g300
I37
tp1073
a(g54
g300
I17
tp1074
a(g97
g330
I1
tp1075
a(g82
g27
I12
tp1076
a(g244
g164
I28
tp1077
a(g335
g33
I3
tp1078
a(g13
g100
I20
tp1079
a(g54
g326
I16
tp1080
a(g13
g396
I38
tp1081
a(g27
g326
I18
tp1082
a(g360
g130
I33
tp1083
a(g30
g133
I21
tp1084
a(g51
g167
I21
tp1085
a(g228
g122
I32
tp1086
a(g183
g211
I14
tp1087
a(g78
g54
I23
tp1088
a(g90
g164
I22
tp1089
a(g64
g211
I22
tp1090
a(g569
g463
I21
tp1091
a(g90
g353
I11
tp1092
a(g302
g229
I29
tp1093
a(g160
S'281859054'
p1094
I11
tp1095
a(g504
g340
I24
tp1096
a(g268
g211
I34
tp1097
a(g252
g241
I23
tp1098
a(g1
g22
I31
tp1099
a(g82
g626
I18
tp1100
a(g169
g396
I33
tp1101
a(g28
g136
I36
tp1102
a(g87
g432
I34
tp1103
a(g14
g37
I11
tp1104
a(g36
g183
I39
tp1105
a(g119
g105
I27
tp1106
a(g234
g534
I16
tp1107
a(S'1505832350'
p1108
g819
I30
tp1109
a(g188
g448
I12
tp1110
a(g2
g47
I23
tp1111
a(g504
g124
I39
tp1112
a(g150
g463
I24
tp1113
a(g178
g469
I5
tp1114
a(g13
g39
I33
tp1115
a(g124
g385
I32
tp1116
a(g105
g20
I35
tp1117
a(g82
g300
I5
tp1118
a(g164
g448
I22
tp1119
a(g4
g195
I24
tp1120
a(g335
g211
I32
tp1121
a(g290
g216
I30
tp1122
a(g25
g1
I26
tp1123
a(g103
g326
I6
tp1124
a(g353
g62
I39
tp1125
a(g41
g111
I25
tp1126
a(g39
g396
I12
tp1127
a(g149
g176
I30
tp1128
a(g294
g498
I22
tp1129
a(g78
g509
I38
tp1130
a(g61
g167
I39
tp1131
a(g87
g221
I16
tp1132
a(g82
g250
I36
tp1133
a(g55
g176
I33
tp1134
a(g105
g195
I20
tp1135
a(g398
g324
I4
tp1136
a(g360
g10
I30
tp1137
a(g453
g16
I12
tp1138
a(g82
g299
I16
tp1139
a(g45
g239
I3
tp1140
a(g59
g149
I35
tp1141
a(g14
g65
I34
tp1142
a(g23
g216
I31
tp1143
a(g54
g299
I5
tp1144
a(g147
g432
I16
tp1145
a(g534
g11
I5
tp1146
a(g23
g39
I37
tp1147
a(g509
g176
I27
tp1148
a(g33
g20
I26
tp1149
a(g300
g214
I1
tp1150
a(g25
g47
I19
tp1151
a(g52
g34
I38
tp1152
a(g273
g175
I39
tp1153
a(g127
g302
I28
tp1154
a(g113
g49
I27
tp1155
a(g326
g62
I29
tp1156
a(g626
g326
I25
tp1157
a(g335
g448
I9
tp1158
a(g20
g317
I14
tp1159
a(g138
g192
I23
tp1160
a(g324
g175
I14
tp1161
a(g16
g111
I17
tp1162
a(g59
g150
I23
tp1163
a(g143
g295
I22
tp1164
a(g214
g62
I33
tp1165
a(g30
g1043
I26
tp1166
a(g842
g72
I2
tp1167
a(g85
g122
I7
tp1168
a(g278
g85
I29
tp1169
a(g244
g33
I2
tp1170
a(g302
g626
I30
tp1171
a(g95
g167
I12
tp1172
a(g273
g662
I33
tp1173
a(g228
g239
I21
tp1174
a(g493
g1094
I20
tp1175
a(g113
g172
I28
tp1176
a(g178
g132
I17
tp1177
a(g82
g509
I8
tp1178
a(g135
g569
I18
tp1179
a(g302
g124
I31
tp1180
a(g343
g98
I10
tp1181
a(g178
g382
I37
tp1182
a(g195
g39
I5
tp1183
a(g534
g109
I18
tp1184
a(g51
g188
I35
tp1185
a(g135
g34
I36
tp1186
a(g295
g261
I9
tp1187
a(g36
g64
I29
tp1188
a(g130
g8
I34
tp1189
a(g329
g465
I1
tp1190
a(g268
g164
I32
tp1191
a(S'1924311179'
p1192
g209
I1
tp1193
a(g432
g263
I11
tp1194
a(g59
g300
I35
tp1195
a(g152
g498
I26
tp1196
a(g250
g524
I27
tp1197
a(g4
g95
I16
tp1198
a(g8
g421
I36
tp1199
a(g197
g228
I35
tp1200
a(g278
g8
I15
tp1201
a(g569
g54
I24
tp1202
a(g87
g1094
I8
tp1203
a(g41
g17
I21
tp1204
a(g54
g103
I14
tp1205
a(g33
g183
I24
tp1206
a(g197
g45
I17
tp1207
a(g566
g71
I13
tp1208
a(g192
g246
I17
tp1209
a(g34
g13
I30
tp1210
a(g234
g310
I22
tp1211
a(g105
g241
I11
tp1212
a(g19
g183
I32
tp1213
a(g95
g100
I35
tp1214
a(g28
g103
I22
tp1215
a(g80
g566
I33
tp1216
a(g268
g128
I31
tp1217
a(g302
g299
I30
tp1218
a(g27
g300
I12
tp1219
a(g338
g5
I30
tp1220
a(g326
g176
I37
tp1221
a(g483
g49
I11
tp1222
a(g121
g124
I11
tp1223
a(g338
g16
I7
tp1224
a(g524
g299
I2
tp1225
a(g250
g302
I18
tp1226
a(g232
g44
I6
tp1227
a(g150
g300
I19
tp1228
a(g113
g23
I39
tp1229
a(g64
g20
I35
tp1230
a(g69
g241
I15
tp1231
a(g82
g136
I13
tp1232
a(g20
g211
I16
tp1233
a(g64
g183
I35
tp1234
a(g338
g4
I21
tp1235
a(g312
g164
I22
tp1236
a(g17
g314
I24
tp1237
a(g1
g17
I7
tp1238
a(g178
g662
I23
tp1239
a(g4
g252
I31
tp1240
a(g305
g149
I38
tp1241
a(g300
g55
I2
tp1242
a(g87
g160
I3
tp1243
a(g61
g169
I35
tp1244
a(g135
g55
I9
tp1245
a(g82
g103
I3
tp1246
a(g119
g211
I20
tp1247
a(g135
g250
I34
tp1248
a(g124
g239
I27
tp1249
a(g4
g2
I20
tp1250
a(g116
g239
I29
tp1251
a(g183
g169
I38
tp1252
a(g338
g453
I8
tp1253
a(g504
g127
I22
tp1254
a(g105
g164
I24
tp1255
a(g146
g294
I26
tp1256
a(g84
g124
I20
tp1257
a(g28
g326
I29
tp1258
a(g524
g136
I22
tp1259
a(g164
g62
I33
tp1260
a(g121
g239
I38
tp1261
a(g504
g59
I10
tp1262
a(g82
g569
I16
tp1263
a(g34
g214
I35
tp1264
a(g441
g176
I20
tp1265
a(g842
g566
I3
tp1266
a(g74
g192
I37
tp1267
a(g209
g211
I30
tp1268
a(g20
g169
I36
tp1269
a(g265
g13
I32
tp1270
a(g312
g448
I14
tp1271
a(g17
g292
I38
tp1272
a(g135
g176
I38
tp1273
a(g158
g161
I27
tp1274
a(g11
g8
I9
tp1275
a(g453
g2
I18
tp1276
a(g287
g8
I31
tp1277
a(g64
g37
I20
tp1278
a(g223
g172
I21
tp1279
a(g119
g448
I32
tp1280
a(g524
g300
I19
tp1281
a(g33
g61
I34
tp1282
a(g51
g312
I38
tp1283
a(g483
g39
I36
tp1284
a(g16
g5
I29
tp1285
a(g85
g121
I6
tp1286
a(g312
g183
I6
tp1287
a(g171
g23
I20
tp1288
a(g223
g5
I17
tp1289
a(g118
g167
I36
tp1290
a(g524
g150
I12
tp1291
a(g141
g228
I32
tp1292
a(g471
g261
I28
tp1293
a(g312
g184
I36
tp1294
a(g64
g119
I25
tp1295
a(g27
g214
I14
tp1296
a(g524
g214
I19
tp1297
a(g171
g207
I3
tp1298
a(g100
g62
I41
tp1299
a(g312
g211
I20
tp1300
a(g441
g569
I34
tp1301
a(g64
g312
I39
tp1302
a(g270
g124
I34
tp1303
a(g469
g133
I12
tp1304
a(g141
g197
I3
tp1305
a(g626
g463
I27
tp1306
a(g41
g67
I8
tp1307
a(g82
g326
I7
tp1308
a(g127
g59
I30
tp1309
a(g64
g19
I10
tp1310
a(g270
g228
I29
tp1311
a(g19
g95
I36
tp1312
a(g824
g292
I16
tp1313
a(g61
g13
I6
tp1314
a(g183
g353
I24
tp1315
a(g207
g172
I24
tp1316
a(g119
g312
I19
tp1317
a(S'1606967716'
p1318
g23
I8
tp1319
a(g69
g312
I38
tp1320
a(g160
g263
I30
tp1321
a(g441
g1043
I9
tp1322
a(g16
g47
I16
tp1323
a(g139
g469
I20
tp1324
a(g36
g195
I28
tp1325
a(g317
g265
I3
tp1326
a(g152
g161
I12
tp1327
a(g819
g580
I19
tp1328
a(g396
g167
I3
tp1329
a(g223
g2
I5
tp1330
a(g483
g338
I19
tp1331
a(g287
g321
I17
tp1332
a(g124
g122
I25
tp1333
a(g463
g214
I6
tp1334
a(g299
g149
I21
tp1335
a(g398
g246
I24
tp1336
a(g5
g290
I30
tp1337
a(g118
g51
I15
tp1338
a(g226
g248
I38
tp1339
a(g77
g130
I33
tp1340
a(g19
g167
I26
tp1341
a(g265
g61
I27
tp1342
a(g37
g167
I5
tp1343
a(g407
g344
I22
tp1344
a(g250
g340
I35
tp1345
a(g135
g82
I3
tp1346
a(g250
g78
I22
tp1347
a(g250
g54
I28
tp1348
a(g2
g67
I10
tp1349
a(g105
g167
I18
tp1350
a(g223
g37
I39
tp1351
a(g22
g216
I37
tp1352
a(g42
g49
I10
tp1353
a(g54
g150
I12
tp1354
a(g4
g199
I32
tp1355
a(g268
g20
I26
tp1356
a(g226
g432
I8
tp1357
a(g569
g305
I31
tp1358
a(g244
g20
I23
tp1359
a(g82
g214
I5
tp1360
a(g188
g13
I25
tp1361
a(g19
g61
I15
tp1362
a(g90
g335
I8
tp1363
a(g25
g172
I33
tp1364
a(g49
g47
I21
tp1365
a(g93
g493
I16
tp1366
a(g74
g179
I29
tp1367
a(g360
g8
I19
tp1368
a(g211
g241
I30
tp1369
a(g381
g192
I38
tp1370
a(g64
g95
I27
tp1371
a(g78
g326
I39
tp1372
a(g234
g109
I23
tp1373
a(g1
g49
I15
tp1374
a(g118
g13
I0
tp1375
a(g360
g284
I19
tp1376
a(g22
g5
I34
tp1377
a(g16
g2
I12
tp1378
a(g448
g33
I12
tp1379
a(g302
g116
I16
tp1380
a(g51
g69
I7
tp1381
a(g188
g169
I38
tp1382
a(g265
g211
I25
tp1383
a(g69
g95
I25
tp1384
a(g25
g23
I8
tp1385
a(g133
g31
I36
tp1386
a(g54
g214
I17
tp1387
a(g207
g453
I17
tp1388
a(g30
g175
I12
tp1389
a(g524
g34
I39
tp1390
a(g171
g67
I3
tp1391
a(g340
g116
I7
tp1392
a(g17
g290
I29
tp1393
a(g135
g504
I37
tp1394
a(g52
g184
I38
tp1395
a(g17
g2
I23
tp1396
a(g504
g299
I24
tp1397
a(g295
g161
I39
tp1398
a(g218
g226
I14
tp1399
a(g105
g252
I16
tp1400
a(g160
g432
I32
tp1401
a(g276
g586
I14
tp1402
a(g483
g172
I23
tp1403
a(g149
g214
I3
tp1404
a(g52
g211
I16
tp1405
a(g483
g25
I16
tp1406
a(g23
g252
I39
tp1407
a(g448
g209
I8
tp1408
a(g27
g55
I15
tp1409
a(g27
g149
I10
tp1410
a(g211
g14
I37
tp1411
a(g330
g465
I12
tp1412
a(g77
g229
I13
tp1413
a(g225
g493
I36
tp1414
a(g34
g62
I11
tp1415
a(S'1924311114'
p1416
g34
I38
tp1417
a(g569
g524
I26
tp1418
a(S'281858850'
p1419
g580
I27
tp1420
a(g329
g98
I2
tp1421
a(g5
g95
I37
tp1422
a(g119
g52
I20
tp1423
a(g259
g218
I37
tp1424
a(g398
g441
I35
tp1425
a(g453
g199
I5
tp1426
a(g59
g55
I36
tp1427
a(g27
g54
I18
tp1428
a(g335
g183
I22
tp1429
a(g335
g61
I33
tp1430
a(g197
g239
I14
tp1431
a(g90
g13
I31
tp1432
a(g4
g22
I23
tp1433
a(g234
g84
I42
tp1434
a(g312
g317
I14
tp1435
a(g569
g300
I13
tp1436
a(g842
g586
I1
tp1437
a(g305
g1043
I11
tp1438
a(g69
g183
I35
tp1439
a(g90
g448
I1
tp1440
a(g483
g2
I14
tp1441
a(g74
g132
I24
tp1442
a(g569
g28
I14
tp1443
a(g105
g13
I18
tp1444
a(g164
g241
I31
tp1445
a(g90
g119
I33
tp1446
a(g1043
g176
I28
tp1447
a(g4
g453
I26
tp1448
a(g41
g22
I17
tp1449
a(g105
g184
I37
tp1450
a(g268
g353
I3
tp1451
a(g77
g340
I12
tp1452
a(g287
g10
I11
tp1453
a(g39
g100
I25
tp1454
a(g349
g344
I20
tp1455
a(g85
g124
I18
tp1456
a(g382
g192
I33
tp1457
a(g202
g1108
I9
tp1458
a(g432
g493
I26
tp1459
a(g432
g158
I36
tp1460
a(g64
g13
I19
tp1461
a(g90
g20
I15
tp1462
a(g52
g65
I34
tp1463
a(g360
g534
I23
tp1464
a(g299
g463
I22
tp1465
a(g534
S'1933039913'
p1466
I4
tp1467
a(g25
g16
I3
tp1468
a(g1
g172
I7
tp1469
a(g1108
g203
I17
tp1470
a(g171
g216
I25
tp1471
a(g84
g127
I25
tp1472
a(g25
g37
I35
tp1473
a(g97
g343
I3
tp1474
a(g98
g344
I7
tp1475
a(g195
g37
I11
tp1476
a(g338
g47
I23
tp1477
a(g130
g228
I32
tp1478
a(g268
g265
I9
tp1479
a(g119
g39
I30
tp1480
a(g80
g2
I38
tp1481
a(g17
g216
I1
tp1482
a(g171
g453
I18
tp1483
a(g381
g138
I14
tp1484
a(g82
g176
I35
tp1485
a(g184
g252
I27
tp1486
a(g312
g13
I29
tp1487
a(g143
g147
I11
tp1488
a(g135
g149
I9
tp1489
a(g42
g314
I35
tp1490
a(g207
g47
I26
tp1491
a(g54
g509
I16
tp1492
a(g441
g305
I2
tp1493
a(g93
g432
I39
tp1494
a(g64
g47
I38
tp1495
a(g69
g105
I4
tp1496
a(g276
g80
I16
tp1497
a(g195
g47
I20
tp1498
a(g209
g128
I34
tp1499
a(g463
g300
I8
tp1500
a(g108
g8
I17
tp1501
a(g36
g167
I33
tp1502
a(g23
g37
I28
tp1503
a(g118
g64
I19
tp1504
a(g234
g360
I25
tp1505
a(g284
g121
I30
tp1506
a(g353
g128
I34
tp1507
a(g453
g23
I17
tp1508
a(g469
g192
I9
tp1509
a(g223
g216
I20
tp1510
a(g626
g569
I24
tp1511
a(g662
g246
I36
tp1512
a(g385
g45
I9
tp1513
a(g132
g469
I23
tp1514
a(g118
g317
I32
tp1515
a(g118
g312
I29
tp1516
a(g80
g71
I20
tp1517
a(g135
g509
I10
tp1518
a(g270
g239
I7
tp1519
a(g103
g136
I13
tp1520
a(g407
g330
I24
tp1521
a(g141
g385
I6
tp1522
a(g19
g119
I28
tp1523
a(g629
g11
I34
tp1524
a(g69
g13
I21
tp1525
a(g23
g396
I29
tp1526
a(g118
g241
I23
tp1527
a(g146
g498
I3
tp1528
a(g340
g228
I16
tp1529
a(g183
g34
I37
tp1530
a(g130
g116
I39
tp1531
a(g51
g195
I23
tp1532
a(g75
g192
I33
tp1533
a(g569
g136
I26
tp1534
a(g28
g55
I26
tp1535
a(g150
g214
I20
tp1536
a(g118
g335
I38
tp1537
a(g34
g211
I32
tp1538
a(g146
g152
I22
tp1539
a(g118
g61
I6
tp1540
a(g188
g184
I38
tp1541
a(g52
g20
I1
tp1542
a(S'1923744268'
p1543
g310
I23
tp1544
a(g42
g199
I34
tp1545
a(g326
g214
I4
tp1546
a(g398
g31
I21
tp1547
a(g580
g203
I32
tp1548
a(g360
g278
I15
tp1549
a(g171
g338
I11
tp1550
a(g19
g39
I24
tp1551
a(g28
g54
I25
tp1552
a(g42
g17
I12
tp1553
a(g244
g335
I1
tp1554
a(g284
g534
I23
tp1555
a(g82
g59
I30
tp1556
a(g41
g113
I21
tp1557
a(g80
g17
I37
tp1558
a(g51
g183
I34
tp1559
a(g54
g463
I17
tp1560
a(g188
g164
I18
tp1561
a(g509
g300
I6
tp1562
a(g52
g183
I1
tp1563
a(g171
g16
I16
tp1564
a(g252
g396
I15
tp1565
a(g302
g524
I33
tp1566
a(g268
g448
I12
tp1567
a(S'2017459396'
p1568
g241
I17
tp1569
a(g207
g216
I23
tp1570
a(g340
g121
I20
tp1571
a(g20
g183
I2
tp1572
a(g270
g229
I19
tp1573
a(g338
g95
I37
tp1574
a(g19
g195
I28
tp1575
a(g534
g421
I38
tp1576
a(g278
g10
I37
tp1577
a(g143
g498
I21
tp1578
a(g188
g20
I1
tp1579
a(g119
g169
I18
tp1580
a(g87
g263
I32
tp1581
a(g58
g122
I33
tp1582
a(g78
g524
I21
tp1583
a(g64
g167
I17
tp1584
a(g22
g199
I8
tp1585
a(g305
g176
I18
tp1586
a(g842
g71
I9
tp1587
a(g16
g172
I33
tp1588
a(g188
g34
I38
tp1589
a(g1
g111
I39
tp1590
a(g121
g45
I35
tp1591
a(g4
g16
I14
tp1592
a(g51
g61
I18
tp1593
a(g42
g16
I22
tp1594
a(g78
g463
I39
tp1595
a(g188
g265
I15
tp1596
a(g108
g85
I38
tp1597
a(g234
g8
I15
tp1598
a(g16
g95
I30
tp1599
a(g19
g65
I39
tp1600
a(g250
g299
I24
tp1601
a(g169
g65
I11
tp1602
a(g244
g188
I21
tp1603
a(g465
g344
I6
tp1604
a(g135
g524
I9
tp1605
a(g69
S'1928136340'
p1606
I12
tp1607
a(g381
g132
I25
tp1608
a(g244
g128
I33
tp1609
a(g64
g52
I36
tp1610
a(g7
g85
I31
tp1611
a(g7
g310
I14
tp1612
a(g8
g310
I30
tp1613
a(g34
g149
I39
tp1614
a(g340
g229
I24
tp1615
a(g16
g223
I11
tp1616
a(g626
g300
I23
tp1617
a(g30
g305
I37
tp1618
a(g312
g61
I23
tp1619
a(g143
g161
I17
tp1620
a(g95
g396
I14
tp1621
a(g626
g214
I24
tp1622
a(g44
g239
I9
tp1623
a(g90
g209
I7
tp1624
a(g324
g1043
I22
tp1625
a(g471
g498
I39
tp1626
a(g41
g338
I13
tp1627
a(g569
g150
I19
tp1628
a(g90
g268
I11
tp1629
a(g244
g61
I32
tp1630
a(g80
g216
I37
tp1631
a(g36
g51
I34
tp1632
a(g569
g103
I13
tp1633
a(g1
S'1928136290'
p1634
I4
tp1635
a(g349
g343
I21
tp1636
a(g335
g128
I32
tp1637
a(g22
g113
I32
tp1638
a(g141
g116
I39
tp1639
a(g349
g329
I21
tp1640
a(g317
g183
I12
tp1641
a(g27
g136
I25
tp1642
a(g36
g14
I27
tp1643
a(g353
g211
I32
tp1644
a(g252
g47
I28
tp1645
a(g19
g52
I33
tp1646
a(g381
g179
I33
tp1647
a(g299
g103
I19
tp1648
a(g169
g195
I24
tp1649
a(g84
g116
I21
tp1650
a(g77
g45
I21
tp1651
a(g64
g195
I18
tp1652
a(g265
g128
I36
tp1653
a(g16
g199
I18
tp1654
a(g626
g524
I11
tp1655
a(g116
g385
I34
tp1656
a(g19
g252
I24
tp1657
a(g299
g326
I21
tp1658
a(g52
g265
I15
tp1659
a(g78
g340
I30
tp1660
a(g273
g179
I24
tp1661
a(g626
g149
I21
tp1662
a(g188
g65
I34
tp1663
a(g138
g662
I4
tp1664
a(g483
g252
I37
tp1665
a(g149
g300
I2
tp1666
a(g39
g721
I3
tp1667
a(g25
g17
I34
tp1668
a(g250
g229
I34
tp1669
a(g59
g509
I34
tp1670
a(g234
g7
I15
tp1671
a(g150
g509
I14
tp1672
a(g52
g353
I24
tp1673
a(g71
g113
I33
tp1674
a(g284
g85
I24
tp1675
a(g105
g95
I29
tp1676
a(g85
g228
I24
tp1677
a(g169
g39
I20
tp1678
a(g77
g58
I21
tp1679
a(g64
g39
I14
tp1680
a(g448
g20
I14
tp1681
a(S'1450232878'
p1682
g2
I3
tp1683
a(g4
S'1951503146'
p1684
I3
tp1685
a(g360
g122
I39
tp1686
a(g139
g192
I11
tp1687
a(g270
g44
I1
tp1688
a(g130
g11
I38
tp1689
a(g130
g534
I36
tp1690
a(g132
g273
I28
tp1691
a(g171
g49
I10
tp1692
a(g626
g509
I18
tp1693
a(g25
g5
I29
tp1694
a(g139
g133
I33
tp1695
a(g147
g263
I4
tp1696
a(g765
g155
I35
tp1697
a(g7
g10
I36
tp1698
a(g49
g172
I21
tp1699
a(g1094
g221
I7
tp1700
a(g87
g493
I12
tp1701
a(g41
g483
I16
tp1702
a(g453
g223
I21
tp1703
a(g113
g216
I28
tp1704
a(g398
g1043
I26
tp1705
a(g5
g216
I4
tp1706
a(g338
g111
I13
tp1707
a(g338
g172
I33
tp1708
a(g61
g195
I39
tp1709
a(g118
g19
I11
tp1710
a(g69
g20
I35
tp1711
a(g41
g2
I3
tp1712
a(g178
g273
I10
tp1713
a(g234
g121
I35
tp1714
a(g16
g14
I39
tp1715
a(g13
g241
I23
tp1716
a(g10
g8
I24
tp1717
a(g42
g67
I17
tp1718
a(g299
g59
I14
tp1719
a(g143
g158
I10
tp1720
a(g234
g11
I17
tp1721
a(g36
g252
I21
tp1722
a(g36
g61
I38
tp1723
a(g250
g626
I18
tp1724
a(g75
g662
I16
tp1725
a(g119
g69
I24
tp1726
a(g566
g716
I7
tp1727
a(g119
g184
I19
tp1728
a(g23
g172
I32
tp1729
a(g39
g65
I31
tp1730
a(g84
g310
I38
tp1731
a(g324
g469
I33
tp1732
a(g19
g13
I11
tp1733
a(g62
g136
I22
tp1734
a(g113
g5
I31
tp1735
a(g7
g534
I21
tp1736
a(g171
g199
I20
tp1737
a(g85
g310
I20
tp1738
a(g175
g31
I4
tp1739
a(g448
g183
I12
tp1740
a(g216
g47
I33
tp1741
a(g223
g49
I2
tp1742
a(g172
g292
I39
tp1743
a(g150
g176
I37
tp1744
a(g87
g226
I39
tp1745
a(g300
g326
I6
tp1746
a(g28
g214
I25
tp1747
a(g287
g11
I35
tp1748
a(g314
g824
I30
tp1749
a(g160
g147
I31
tp1750
a(g118
g265
I32
tp1751
a(g52
g169
I38
tp1752
a(g268
g61
I36
tp1753
a(g33
g211
I33
tp1754
a(g765
g493
I32
tp1755
a(g33
g317
I12
tp1756
a(g47
g1568
I20
tp1757
a(g209
g20
I22
tp1758
a(g77
S'1926335103'
p1759
I7
tp1760
a(g223
g47
I18
tp1761
a(g19
g169
I34
tp1762
a(g252
g65
I28
tp1763
a(g47
g167
I21
tp1764
a(g118
g164
I8
tp1765
a(g335
g317
I9
tp1766
a(g59
g214
I36
tp1767
a(g143
g226
I35
tp1768
a(g234
g108
I20
tp1769
a(g133
g246
I11
tp1770
a(g197
g44
I6
tp1771
a(g343
g330
I2
tp1772
a(g52
g448
I12
tp1773
a(g108
g10
I32
tp1774
a(g23
g2
I14
tp1775
a(g252
g95
I14
tp1776
a(g103
g150
I17
tp1777
a(g338
g1
I26
tp1778
a(g36
S'1924311191'
p1779
I19
tp1780
a(g113
g2
I24
tp1781
a(g172
g47
I34
tp1782
a(g164
g61
I4
tp1783
a(g171
g47
I30
tp1784
a(g164
g33
I30
tp1785
a(g28
g299
I26
tp1786
a(g338
g17
I34
tp1787
a(g23
g111
I22
tp1788
a(g84
g302
I30
tp1789
a(g842
g716
I11
tp1790
a(g407
g97
I24
tp1791
a(g276
g716
I22
tp1792
a(g41
g25
I14
tp1793
a(g64
g100
I15
tp1794
a(g228
g45
I17
tp1795
a(g25
g4
I17
tp1796
a(g23
g49
I13
tp1797
a(g74
g662
I20
tp1798
a(g130
g121
I15
tp1799
a(g75
g139
I22
tp1800
a(g22
g223
I17
tp1801
a(g23
g223
I12
tp1802
a(g41
g223
I7
tp1803
a(g509
g55
I9
tp1804
a(g463
g55
I5
tp1805
a(g58
g302
I19
tp1806
a(g155
g321
I17
tp1807
a(g161
g493
I27
tp1808
a(g146
g161
I34
tp1809
a(g234
g122
I22
tp1810
a(g36
g312
I38
tp1811
a(g483
g17
I24
tp1812
a(g41
g784
I3
tp1813
a(g4
g111
I31
tp1814
a(g314
g172
I25
tp1815
a(g69
g14
I14
tp1816
a(g103
g214
I3
tp1817
a(g312
g265
I17
tp1818
a(g98
g465
I1
tp1819
a(g69
g195
I17
tp1820
a(g113
g67
I15
tp1821
a(g33
g265
I9
tp1822
a(g273
g246
I10
tp1823
a(g111
g47
I32
tp1824
a(g49
g67
I13
tp1825
a(g61
g241
I28
tp1826
a(g138
g179
I19
tp1827
a(g118
g69
I21
tp1828
a(g234
g10
I39
tp1829
a(g55
g62
I32
tp1830
a(g263
g493
I28
tp1831
a(g483
g67
I24
tp1832
a(g1419
g579
I11
tp1833
a(g534
g629
I38
tp1834
a(g2
g216
I22
tp1835
a(g278
g284
I4
tp1836
a(g150
g55
I21
tp1837
a(g819
g203
I12
tp1838
a(g149
g62
I37
tp1839
a(g87
g147
I32
tp1840
a(g127
g116
I33
tp1841
a(g130
g124
I26
tp1842
a(g396
g37
I1
tp1843
a(g716
g586
I9
tp1844
a(g93
g1094
I4
tp1845
a(g192
g133
I22
tp1846
a(g1
g314
I30
tp1847
a(g335
g13
I38
tp1848
a(g250
g509
I36
tp1849
a(g509
g326
I13
tp1850
a(g4
g396
I24
tp1851
a(g28
g150
I13
tp1852
a(g41
g47
I26
tp1853
a(g75
g178
I37
tp1854
a(g626
g27
I16
tp1855
a(g335
g164
I30
tp1856
a(g569
g299
I28
tp1857
a(g317
g353
I12
tp1858
a(g171
g25
I14
tp1859
a(g321
g421
I22
tp1860
a(g207
g49
I6
tp1861
a(g150
g326
I22
tp1862
a(g84
g340
I14
tp1863
a(g268
g317
I12
tp1864
a(g626
g28
I17
tp1865
a(g78
g150
I27
tp1866
a(g34
g103
I37
tp1867
a(g312
g268
I26
tp1868
a(g51
g65
I37
tp1869
a(g139
g179
I8
tp1870
a(g335
g209
I2
tp1871
a(g19
g100
I10
tp1872
a(g139
g662
I8
tp1873
a(g22
g111
I9
tp1874
a(g119
g317
I32
tp1875
a(g1759
g310
I32
tp1876
a(g20
g13
I25
tp1877
a(g453
g49
I20
tp1878
a(g118
g37
I38
tp1879
a(g483
g207
I17
tp1880
a(g155
g259
I11
tp1881
a(g19
g188
I33
tp1882
a(g164
g353
I29
tp1883
a(g504
g78
I6
tp1884
a(g1
g290
I34
tp1885
a(g524
g326
I18
tp1886
a(g30
g324
I9
tp1887
a(g662
g179
I16
tp1888
a(g34
g326
I30
tp1889
a(g28
g300
I23
tp1890
a(g149
g509
I4
tp1891
a(g135
g326
I9
tp1892
a(g51
g184
I39
tp1893
a(g225
g155
I30
tp1894
a(g135
g626
I16
tp1895
a(g105
g188
I36
tp1896
a(g69
g65
I31
tp1897
a(g7
g109
I36
tp1898
a(g7
g122
I27
tp1899
a(g75
g138
I13
tp1900
a(g273
g139
I25
tp1901
a(g20
g65
I32
tp1902
a(g317
g13
I32
tp1903
a(g42
g113
I25
tp1904
a(g268
g52
I24
tp1905
a(g338
g23
I12
tp1906
a(g483
g453
I26
tp1907
a(g295
g498
I1
tp1908
a(g108
g11
I26
tp1909
a(g209
g183
I20
tp1910
a(g118
g62
I32
tp1911
a(g226
g493
I29
tp1912
a(g20
g265
I17
tp1913
a(g105
g211
I22
tp1914
a(g34
g463
I28
tp1915
a(g64
g169
I25
tp1916
a(g100
g241
I5
tp1917
a(g4
g39
I29
tp1918
a(g448
g265
I3
tp1919
a(g108
g421
I35
tp1920
a(g90
g211
I24
tp1921
a(g118
g252
I33
tp1922
a(g82
g524
I13
tp1923
a(g195
g167
I6
tp1924
a(g19
g105
I7
tp1925
a(g1419
g700
I35
tp1926
a(g299
g150
I12
tp1927
a(g169
g241
I38
tp1928
a(g300
g176
I31
tp1929
a(g20
g61
I18
tp1930
a(g524
g103
I16
tp1931
a(g171
g223
I12
tp1932
a(g132
g246
I30
tp1933
a(g109
g465
I37
tp1934
a(g130
g7
I22
tp1935
a(g188
g317
I12
tp1936
a(g299
g214
I22
tp1937
a(g4
g223
I15
tp1938
a(g195
g65
I35
tp1939
a(g263
g1094
I39
tp1940
a(g36
g188
I39
tp1941
a(g34
g55
I34
tp1942
a(g97
g344
I6
tp1943
a(g42
g4
I23
tp1944
a(g1543
g421
I30
tp1945
a(g67
g216
I25
tp1946
a(g1094
g88
I16
tp1947
a(g175
g133
I32
tp1948
a(g483
g22
I22
tp1949
a(g169
g14
I23
tp1950
a(g188
g52
I0
tp1951
a(g141
g124
I38
tp1952
a(g626
g59
I19
tp1953
a(g74
g139
I27
tp1954
a(g160
g221
I19
tp1955
a(g119
g195
I36
tp1956
a(g338
g49
I11
tp1957
a(g534
g122
I38
tp1958
a(g483
g37
I32
tp1959
a(g105
g61
I20
tp1960
a(g105
g39
I16
tp1961
a(g534
g310
I34
tp1962
a(g183
g65
I34
tp1963
a(g138
g469
I33
tp1964
a(g448
g317
I2
tp1965
a(g5
g67
I25
tp1966
a(g171
g41
I6
tp1967
a(g211
g39
I35
tp1968
a(g51
g241
I11
tp1969
a(g5
g172
I5
tp1970
a(g135
g299
I12
tp1971
a(g171
g4
I27
tp1972
a(g398
g305
I38
tp1973
a(g88
g221
I9
tp1974
a(g47
g241
I38
tp1975
a(g160
g493
I9
tp1976
a(g184
g95
I36
tp1977
a(g504
g84
I33
tp1978
a(g164
g265
I24
tp1979
a(g90
g188
I13
tp1980
a(g504
g150
I33
tp1981
a(g483
g16
I13
tp1982
a(g116
g59
I33
tp1983
a(g16
g23
I5
tp1984
a(g82
g149
I5
tp1985
a(g7
g121
I37
tp1986
a(g17
g49
I22
tp1987
a(g276
g113
I30
tp1988
a(g14
g241
I21
tp1989
a(g158
g498
I11
tp1990
a(g349
g330
I22
tp1991
a(g105
g52
I36
tp1992
a(g819
g579
I35
tp1993
a(g448
g128
I38
tp1994
a(g42
g111
I35
tp1995
a(g626
g55
I24
tp1996
a(g51
g20
I34
tp1997
a(g278
g108
I10
tp1998
a(g312
g209
I22
tp1999
a(g385
g239
I5
tp2000
a(g10
g109
I37
tp2001
a(g329
g343
I8
tp2002
a(g51
g396
I22
tp2003
a(g108
g310
I19
tp2004
a(g184
g39
I30
tp2005
a(g33
g13
I38
tp2006
a(g268
g183
I24
tp2007
a(g483
g14
I33
tp2008
a(g232
g270
I5
tp2009
a(g75
g132
I20
tp2010
a(g321
g259
I7
tp2011
a(g164
g39
I39
tp2012
a(g252
g39
I3
tp2013
a(g109
g8
I22
tp2014
a(g504
g250
I24
tp2015
a(g4
g67
I30
tp2016
a(g765
g248
I20
tp2017
a(g105
g396
I20
tp2018
a(g58
g121
I25
tp2019
a(g453
g113
I35
tp2020
a(g51
g95
I31
tp2021
a(g67
g199
I21
tp2022
a(g171
g5
I24
tp2023
a(g483
g113
I38
tp2024
a(g67
g111
I23
tp2025
a(g278
g11
I23
tp2026
a(g72
g586
I4
tp2027
a(g287
g278
I41
tp2028
a(g314
g292
I14
tp2029
a(g284
g8
I19
tp2030
a(g300
g136
I13
tp2031
a(g111
g199
I2
tp2032
a(g135
g54
I7
tp2033
a(g284
g108
I14
tp2034
a(S'1925449471'
p2035
g7
I7
tp2036
a(g314
g216
I25
tp2037
a(g524
g59
I16
tp2038
a(g52
g317
I12
tp2039
a(g155
g421
I28
tp2040
a(g16
g167
I35
tp2041
a(g441
g31
I19
tp2042
a(g52
g209
I20
tp2043
a(g42
g23
I22
tp2044
a(g244
g265
I6
tp2045
a(g278
g310
I15
tp2046
a(g448
g34
I32
tp2047
a(g116
g122
I36
tp2048
a(g69
g252
I12
tp2049
a(g51
g105
I2
tp2050
a(g340
g239
I36
tp2051
a(g147
g1094
I39
tp2052
a(g78
g626
I23
tp2053
a(g33
g128
I33
tp2054
a(g105
g100
I12
tp2055
a(g69
g164
I27
tp2056
a(g250
g58
I37
tp2057
a(g42
g22
I26
tp2058
a(g305
g214
I39
tp2059
a(g54
g59
I18
tp2060
a(g183
g13
I23
tp2061
a(g161
g498
I38
tp2062
a(g143
g152
I5
tp2063
a(g199
g47
I33
tp2064
a(g27
g299
I21
tp2065
a(g483
g111
I31
tp2066
a(g765
g161
I39
tp2067
a(g52
g164
I18
tp2068
a(g58
g130
I38
tp2069
a(g284
g122
I19
tp2070
a(g77
g385
I30
tp2071
a(g97
g329
I11
tp2072
a(g382
g662
I14
tp2073
a(g1043
g31
I12
tp2074
a(g58
g340
I9
tp2075
a(g135
g463
I10
tp2076
a(g160
g152
I34
tp2077
a(g135
g62
I37
tp2078
a(g64
g241
I13
tp2079
a(g69
g169
I23
tp2080
a(g448
g13
I30
tp2081
a(g42
g47
I26
tp2082
a(g169
g252
I17
tp2083
a(g17
g172
I0
tp2084
a(g195
g396
I9
tp2085
a(g171
g22
I14
tp2086
a(g116
g124
I15
tp2087
a(g483
g47
I11
tp2088
a(g147
g498
I32
tp2089
a(g84
g229
I35
tp2090
a(g569
g509
I8
tp2091
a.