(lp0
(S'1767875323'
p1
S'1928136301'
p2
I16
tp3
a(S'1606967716'
p4
S'1928136290'
p5
I25
tp6
a(S'1925449518'
p7
S'1933039913'
p8
I16
tp9
a(S'1926445418'
p10
S'1928136341'
p11
I36
tp12
a(S'1926299755'
p13
S'1928136232'
p14
I33
tp15
a(S'1924311168'
p16
S'1926390161'
p17
I32
tp18
a(S'1924311236'
p19
S'1926299776'
p20
I14
tp21
a(S'1450232984'
p22
g2
I11
tp23
a(S'1923753475'
p24
S'1923753497'
p25
I10
tp26
a(S'1505832367'
p27
S'281858939'
p28
I16
tp29
a(S'1926390155'
p30
S'1926427449'
p31
I30
tp32
a(S'1504662520'
p33
S'2017459396'
p34
I38
tp35
a(g33
S'1928136340'
p36
I24
tp37
a(S'1926344335'
p38
S'3151286455'
p39
I13
tp40
a(g20
S'1951503146'
p41
I10
tp42
a(g22
S'1928136282'
p43
I11
tp44
a(S'1924311224'
p45
S'1926390116'
p46
I35
tp47
a(S'1924311114'
p48
S'1976894145'
p49
I17
tp50
a(g10
g34
I38
tp51
a(S'1668187798'
p52
S'1927657849'
p53
I30
tp54
a(S'1926390167'
p55
S'1976894199'
p56
I36
tp57
a(S'1924311108'
p58
S'1947827928'
p59
I33
tp60
a(S'1863635340'
p61
S'1924311213'
p62
I32
tp63
a(S'1924311246'
p64
g34
I20
tp65
a(S'1863635337'
p66
S'1923744259'
p67
I28
tp68
a(S'1715025799'
p69
S'1715025801'
p70
I4
tp71
a(S'1613270561'
p72
S'1668187802'
p73
I38
tp74
a(S'1450232730'
p75
g49
I6
tp76
a(S'1450232788'
p77
S'1926335059'
p78
I18
tp79
a(S'1923744304'
p80
S'281859063'
p81
I24
tp82
a(g46
S'1926390146'
p83
I12
tp84
a(g73
g24
I38
tp85
a(S'1923744301'
p86
g81
I20
tp87
a(S'1928136328'
p88
g11
I11
tp89
a(S'1926427506'
p90
S'1933039891'
p91
I14
tp92
a(g5
S'1928136316'
p93
I26
tp94
a(g4
g11
I26
tp95
a(S'1951503193'
p96
g49
I3
tp97
a(S'1926427522'
p98
S'1933039910'
p99
I22
tp100
a(g58
S'1926299702'
p101
I2
tp102
a(g64
g41
I37
tp103
a(S'1925449524'
p104
S'1933039879'
p105
I38
tp106
a(g22
S'1936239778'
p107
I15
tp108
a(S'1926299696'
p109
g107
I37
tp110
a(g13
g34
I33
tp111
a(g62
g78
I30
tp112
a(S'1450232656'
p113
S'1450232746'
p114
I21
tp115
a(S'1926335063'
p116
S'2033799172'
p117
I13
tp118
a(S'1926335103'
p119
g38
I36
tp120
a(S'1450232689'
p121
S'1976894135'
p122
I20
tp123
a(g66
S'b-Engineering 3'
p124
I32
tp125
a(S'1923744281'
p126
g117
I6
tp127
a(S'1924285123'
p128
S'1976894083'
p129
I35
tp130
a(S'1450232674'
p131
S'1976894203'
p132
I15
tp133
a(S'1924285146'
p134
S'1924285155'
p135
I13
tp136
a(S'1863635342'
p137
g39
I14
tp138
a(g80
S'1976894055'
p139
I38
tp140
a(g4
g14
I31
tp141
a(S'1976894052'
p142
S'1976894069'
p143
I28
tp144
a(S'1951503205'
p145
S'1976894045'
p146
I17
tp147
a(g86
S'1976894136'
p148
I38
tp149
a(g72
g38
I34
tp150
a(S'1923744337'
p151
S'1927657929'
p152
I35
tp153
a(g121
g17
I25
tp154
a(g143
S'1976894148'
p155
I21
tp156
a(S'1923744311'
p157
S'1976894161'
p158
I30
tp159
a(g33
g64
I27
tp160
a(g16
S'1926390140'
p161
I18
tp162
a(g19
g14
I38
tp163
a(g161
S'1926445433'
p164
I5
tp165
a(g64
S'2017459398'
p166
I17
tp167
a(g164
g56
I38
tp168
a(S'1928136235'
p169
g166
I29
tp170
a(g113
S'1932767871'
p171
I26
tp172
a(g36
g34
I14
tp173
a(S'1927657765'
p174
S'281858958'
p175
I39
tp176
a(S'1924285105'
p177
S'1926299703'
p178
I13
tp179
a(g4
g171
I31
tp180
a(g169
g34
I34
tp181
a(S'1926427394'
p182
S'1928136298'
p183
I38
tp184
a(g55
g122
I25
tp185
a(g20
S'1928136308'
p186
I24
tp187
a(S'1926390110'
p188
g182
I1
tp189
a(g131
g73
I30
tp190
a(g46
g10
I25
tp191
a(g177
S'1924285211'
p192
I4
tp193
a(S'1976894177'
p194
g56
I33
tp195
a(S'1928136275'
p196
g183
I34
tp197
a(g72
S'1863635344'
p198
I38
tp199
a(g109
S'1936239789'
p200
I35
tp201
a(g43
g2
I3
tp202
a(g27
S'1926299704'
p203
I26
tp204
a(S'1450232907'
p205
g19
I4
tp206
a(S'1450232878'
p207
g13
I13
tp208
a(S'1926390154'
p209
g30
I3
tp210
a(g33
g183
I6
tp211
a(g78
g117
I7
tp212
a(g131
g194
I9
tp213
a(g13
S'1932767863'
p214
I32
tp215
a(S'1976894086'
p216
g158
I32
tp217
a(g5
g41
I29
tp218
a(g86
S'481695399'
p219
I11
tp220
a(g14
S'1928136260'
p221
I22
tp222
a(S'1923744306'
p223
S'1976894100'
p224
I18
tp225
a(S'1926335104'
p226
S'3151286454'
p227
I10
tp228
a(g72
g116
I18
tp229
a(g61
g227
I15
tp230
a(S'1450232668'
p231
g126
I20
tp232
a(g145
g49
I4
tp233
a(S'1924311191'
p234
g166
I38
tp235
a(g52
g78
I29
tp236
a(g137
S'3151286456'
p237
I11
tp238
a(g36
S'2017459402'
p239
I21
tp240
a(g55
g31
I31
tp241
a(g121
S'1924311179'
p242
I36
tp243
a(g178
S'281858921'
p244
I22
tp245
a(g151
S'281859018'
p246
I16
tp247
a(S'1505832338'
p248
g72
I37
tp249
a(g45
S'1928136305'
p250
I19
tp251
a(g2
g88
I36
tp252
a(g45
g11
I21
tp253
a(g188
g164
I16
tp254
a(g4
g166
I25
tp255
a(g131
g53
I26
tp256
a(g223
S'1947819572'
p257
I38
tp258
a(g148
S'1976894200'
p259
I36
tp260
a(g155
S'1999591895'
p261
I25
tp262
a(g209
S'1926390166'
p263
I5
tp264
a(g209
g55
I31
tp265
a(g242
S'1926390115'
p266
I3
tp267
a(S'1924285209'
p268
g62
I37
tp269
a(S'1924285124'
p270
g134
I38
tp271
a(g5
S'1932767831'
p272
I30
tp273
a(g22
S'2017459391'
p274
I36
tp275
a(S'1923744333'
p276
g105
I32
tp277
a(g22
g19
I6
tp278
a(g72
g61
I27
tp279
a(g121
g182
I23
tp280
a(g20
g11
I33
tp281
a(S'1925449471'
p282
S'1933039904'
p283
I26
tp284
a(S'1450232665'
p285
S'1924342366'
p286
I10
tp287
a(S'1923744328'
p288
g257
I24
tp289
a(g151
g216
I32
tp290
a(g272
g171
I30
tp291
a(g272
S'1932767884'
p292
I9
tp293
a(S'1976894154'
p294
S'1976894158'
p295
I21
tp296
a(g72
g117
I31
tp297
a(g101
g59
I35
tp298
a(S'1924311233'
p299
S'1976894096'
p300
I21
tp301
a(g67
g53
I17
tp302
a(S'1450232710'
p303
g13
I15
tp304
a(g24
S'1924285189'
p305
I39
tp306
a(g227
g39
I8
tp307
a(g248
g25
I28
tp308
a(g4
g1
I24
tp309
a(g114
g207
I17
tp310
a(g283
S'281858988'
p311
I38
tp312
a(g16
S'1926390113'
p313
I37
tp314
a(g113
g207
I3
tp315
a(g250
g34
I17
tp316
a(S'1926390164'
p317
g124
I36
tp318
a(g116
g227
I29
tp319
a(g90
S'1933039842'
p320
I3
tp321
a(g257
g216
I37
tp322
a(S'1927657925'
p323
g246
I33
tp324
a(g216
g261
I34
tp325
a(S'1924285106'
p326
g244
I28
tp327
a(S'1976894144'
p328
g132
I6
tp329
a(g45
g34
I23
tp330
a(S'1933039833'
p331
g99
I10
tp332
a(g10
g56
I32
tp333
a(g152
g257
I28
tp334
a(g177
g326
I38
tp335
a(S'1926390111'
p336
g17
I23
tp337
a(g234
g161
I25
tp338
a(S'1450232907'
p339
g109
I30
tp340
a(g67
S'1923744324'
p341
I18
tp342
a(g341
g53
I34
tp343
a(g320
S'1983396672'
p344
I3
tp345
a(g19
g41
I25
tp346
a(g75
g25
I22
tp347
a(g186
g171
I26
tp348
a(g98
g91
I23
tp349
a(g19
g13
I9
tp350
a(g164
g122
I27
tp351
a(S'1926427461'
p352
g10
I37
tp353
a(g339
g221
I13
tp354
a(S'1926390155'
p355
g352
I1
tp356
a(g72
g66
I39
tp357
a(g161
g182
I16
tp358
a(S'1923744268'
p359
g288
I30
tp360
a(g43
g88
I34
tp361
a(g1
g20
I25
tp362
a(g299
g132
I25
tp363
a(g122
g34
I22
tp364
a(g174
g244
I36
tp365
a(g55
g250
I33
tp366
a(g303
g43
I5
tp367
a(g55
g182
I17
tp368
a(g20
g14
I33
tp369
a(g242
g317
I9
tp370
a(S'1924311188'
p371
g263
I1
tp372
a(g80
g158
I31
tp373
a(g69
S'281858891'
p374
I51
tp375
a(g161
g250
I38
tp376
a(g339
g88
I37
tp377
a(g339
g200
I12
tp378
a(g78
g227
I35
tp379
a(g303
g20
I18
tp380
a(S'1924285118'
p381
S'1924285130'
p382
I5
tp383
a(g52
g62
I16
tp384
a(g226
S'1926344379'
p385
I26
tp386
a(g27
g270
I27
tp387
a(g128
g135
I2
tp388
a(g263
g31
I31
tp389
a(g234
g122
I38
tp390
a(g46
g30
I24
tp391
a(g33
g11
I27
tp392
a(g55
g164
I2
tp393
a(g317
g164
I25
tp394
a(g303
g171
I20
tp395
a(g16
g274
I27
tp396
a(S'1551379939'
p397
g177
I34
tp398
a(g196
g239
I23
tp399
a(g142
g295
I5
tp400
a(g61
g237
I2
tp401
a(g11
g122
I26
tp402
a(S'1926390115'
p403
S'1926427405'
p404
I76
tp405
a(g326
S'1924285157'
p406
I33
tp407
a(g146
g132
I28
tp408
a(g48
g132
I20
tp409
a(g313
g352
I26
tp410
a(g359
g283
I28
tp411
a(g1
g221
I14
tp412
a(g137
g227
I22
tp413
a(g223
g158
I36
tp414
a(g336
g31
I32
tp415
a(g116
g226
I18
tp416
a(g164
g59
I35
tp417
a(g207
g221
I8
tp418
a(g339
g214
I32
tp419
a(S'281859004'
p420
g246
I40
tp421
a(g58
g250
I14
tp422
a(g288
g104
I34
tp423
a(S'1976894068'
p424
g49
I5
tp425
a(g1
g109
I28
tp426
a(g5
g292
I39
tp427
a(g209
g317
I8
tp428
a(g227
g237
I12
tp429
a(g192
g178
I10
tp430
a(g143
g148
I6
tp431
a(S'1976894133'
p432
g158
I9
tp433
a(S'1924311179'
p434
g209
I1
tp435
a(g250
g41
I28
tp436
a(g72
g67
I24
tp437
a(g64
g122
I17
tp438
a(S'1450232781'
p439
g186
I29
tp440
a(g8
g311
I30
tp441
a(g242
g313
I24
tp442
a(g397
g129
I16
tp443
a(g299
g49
I22
tp444
a(S'1923744323'
p445
g174
I23
tp446
a(g143
g216
I38
tp447
a(g121
g30
I38
tp448
a(g248
g39
I39
tp449
a(g43
g214
I21
tp450
a(g83
g55
I25
tp451
a(g49
g194
I1
tp452
a(g24
g132
I25
tp453
a(g223
g216
I10
tp454
a(g242
g46
I21
tp455
a(g22
S'1924311195'
p456
I10
tp457
a(g157
g139
I37
tp458
a(g288
g7
I39
tp459
a(S'1585304132'
p460
g88
I37
tp461
a(g33
g46
I39
tp462
a(g326
g28
I17
tp463
a(g188
g336
I22
tp464
a(g207
g20
I17
tp465
a(g8
g117
I36
tp466
a(g24
g424
I20
tp467
a(g46
g161
I18
tp468
a(g101
g34
I21
tp469
a(g406
g178
I19
tp470
a(S'1976894058'
p471
g294
I16
tp472
a(g10
g164
I9
tp473
a(S'1923753475'
p474
g146
I11
tp475
a(g224
g148
I30
tp476
a(g341
g237
I36
tp477
a(g22
g186
I17
tp478
a(g303
g439
I34
tp479
a(g282
g311
I11
tp480
a(g214
g171
I0
tp481
a(g116
g311
I24
tp482
a(g121
g234
I27
tp483
a(g158
g261
I2
tp484
a(g231
g276
I11
tp485
a(g294
g259
I11
tp486
a(g16
g11
I25
tp487
a(g70
g382
I10
tp488
a(g183
g11
I33
tp489
a(g157
g224
I37
tp490
a(g143
S'281859032'
p491
I30
tp492
a(g460
g272
I39
tp493
a(g113
g439
I32
tp494
a(g91
g99
I13
tp495
a(g259
S'2016012246'
p496
I11
tp497
a(g16
g239
I13
tp498
a(g207
g200
I21
tp499
a(g242
g164
I31
tp500
a(g320
S'1933039929'
p501
I9
tp502
a(g456
g186
I20
tp503
a(S'1450232698'
p504
g48
I29
tp505
a(g19
g2
I14
tp506
a(g52
g73
I26
tp507
a(g207
g186
I6
tp508
a(g24
S'1976894047'
p509
I5
tp510
a(g221
g196
I39
tp511
a(g121
g36
I33
tp512
a(g234
g55
I22
tp513
a(g13
g274
I33
tp514
a(g55
g11
I37
tp515
a(g1
g13
I25
tp516
a(g114
g88
I22
tp517
a(g313
g30
I26
tp518
a(g504
g62
I25
tp519
a(g80
S'281859054'
p520
I8
tp521
a(S'1924311188'
p522
g124
I37
tp523
a(g61
g198
I12
tp524
a(S'1924311120'
p525
g49
I19
tp526
a(g313
g169
I37
tp527
a(g121
g56
I32
tp528
a(g52
g227
I33
tp529
a(g55
g239
I28
tp530
a(g33
g164
I37
tp531
a(g4
g34
I24
tp532
a(g142
g259
I15
tp533
a(g303
g214
I20
tp534
a(g104
S'1933039841'
p535
I21
tp536
a(g11
g41
I23
tp537
a(g19
g43
I16
tp538
a(g504
g52
I20
tp539
a(g137
g38
I2
tp540
a(g231
g152
I39
tp541
a(g234
g263
I35
tp542
a(g25
g424
I31
tp543
a(g188
g55
I18
tp544
a(g397
g174
I17
tp545
a(g43
g5
I18
tp546
a(g404
g501
I22
tp547
a(g504
g72
I33
tp548
a(g460
g171
I11
tp549
a(g48
g96
I14
tp550
a(g69
g382
I11
tp551
a(g19
g88
I39
tp552
a(g250
g166
I12
tp553
a(g234
g10
I27
tp554
a(g25
g509
I16
tp555
a(g263
g352
I9
tp556
a(g101
g182
I35
tp557
a(g30
g182
I24
tp558
a(g439
g207
I35
tp559
a(g207
g5
I22
tp560
a(g270
g192
I14
tp561
a(g5
g2
I20
tp562
a(g126
S'1926335059'
p563
I9
tp564
a(g234
g188
I20
tp565
a(g226
g38
I30
tp566
a(g339
g186
I14
tp567
a(g285
S'1924342305'
p568
I16
tp569
a(g169
g88
I27
tp570
a(S'1923744340'
p571
g194
I15
tp572
a(g305
g28
I21
tp573
a(g525
g509
I18
tp574
a(g131
g96
I7
tp575
a(g101
g17
I35
tp576
a(g43
g200
I24
tp577
a(g231
g78
I28
tp578
a(g77
g52
I12
tp579
a(g397
g192
I38
tp580
a(S'2888358088'
p581
S'2888358091'
p582
I15
tp583
a(g145
g328
I8
tp584
a(g522
g182
I13
tp585
a(g223
g261
I38
tp586
a(g439
g286
I27
tp587
a(g177
g129
I17
tp588
a(g25
g53
I36
tp589
a(g46
g55
I19
tp590
a(g234
g11
I33
tp591
a(g22
g109
I33
tp592
a(g88
g239
I30
tp593
a(g58
S'1924311246'
p594
I2
tp595
a(g183
g166
I39
tp596
a(g288
g151
I28
tp597
a(g67
g116
I39
tp598
a(g24
g53
I34
tp599
a(g121
g188
I25
tp600
a(g221
g88
I31
tp601
a(g234
g250
I27
tp602
a(g128
g134
I10
tp603
a(g270
g129
I7
tp604
a(g96
g424
I8
tp605
a(g33
g58
I29
tp606
a(g169
g183
I10
tp607
a(g10
g169
I38
tp608
a(g99
g344
I5
tp609
a(g186
g41
I33
tp610
a(g52
g119
I24
tp611
a(g177
g244
I13
tp612
a(g263
g182
I15
tp613
a(g166
g239
I18
tp614
a(g55
g352
I33
tp615
a(g188
g30
I24
tp616
a(g121
g11
I35
tp617
a(g53
g328
I35
tp618
a(g13
g43
I11
tp619
a(g53
g96
I33
tp620
a(g36
g166
I9
tp621
a(g295
g261
I37
tp622
a(g460
g1
I4
tp623
a(g248
g24
I33
tp624
a(g96
g145
I2
tp625
a(g571
g49
I16
tp626
a(g25
g96
I22
tp627
a(g397
g406
I28
tp628
a(S'1923744286'
p629
g48
I12
tp630
a(g439
g1
I38
tp631
a(g152
S'1933039889'
p632
I35
tp633
a(g242
g522
I8
tp634
a(g113
g14
I26
tp635
a(g61
g39
I6
tp636
a(S'1505832366'
p637
S'281858878'
p638
I26
tp639
a(g404
g331
I22
tp640
a(g382
g192
I33
tp641
a(g80
g148
I35
tp642
a(g62
g227
I17
tp643
a(g456
g41
I28
tp644
a(g198
g227
I24
tp645
a(g75
g31
I36
tp646
a(g403
g355
I2
tp647
a(g568
g286
I6
tp648
a(g571
g145
I11
tp649
a(g88
g59
I38
tp650
a(g460
g221
I10
tp651
a(g22
g88
I33
tp652
a(g188
g352
I24
tp653
a(g33
g59
I8
tp654
a(g209
g10
I35
tp655
a(g55
g36
I34
tp656
a(g571
g328
I19
tp657
a(g75
g24
I12
tp658
a(g397
g270
I24
tp659
a(g69
g134
I17
tp660
a(g109
g14
I29
tp661
a(g126
g282
I15
tp662
a(g266
g164
I34
tp663
a(g192
S'1924285220'
p664
I19
tp665
a(g404
g98
I2
tp666
a(g177
g135
I15
tp667
a(g121
g352
I37
tp668
a(g294
g496
I22
tp669
a(g359
g152
I30
tp670
a(g22
g166
I38
tp671
a(g504
g226
I38
tp672
a(g242
g83
I9
tp673
a(g135
g244
I27
tp674
a(g14
g41
I35
tp675
a(g303
g1
I15
tp676
a(g121
g164
I9
tp677
a(g341
g563
I25
tp678
a(g73
g67
I14
tp679
a(g128
g664
I6
tp680
a(g88
g36
I13
tp681
a(g14
g186
I26
tp682
a(g22
g200
I15
tp683
a(g177
g134
I28
tp684
a(g234
g59
I15
tp685
a(g114
g4
I7
tp686
a(g10
g166
I37
tp687
a(g522
g55
I26
tp688
a(g276
g7
I4
tp689
a(g288
g535
I32
tp690
a(g491
g81
I37
tp691
a(g471
g295
I38
tp692
a(g64
g46
I36
tp693
a(g86
g158
I35
tp694
a(g131
g25
I23
tp695
a(g336
g46
I21
tp696
a(g207
g107
I22
tp697
a(g58
g183
I34
tp698
a(g242
g352
I3
tp699
a(g424
g132
I4
tp700
a(S'281858862'
p701
g638
I32
tp702
a(g25
g146
I13
tp703
a(g509
g424
I15
tp704
a(g525
g424
I19
tp705
a(g509
g194
I8
tp706
a(g339
g13
I7
tp707
a(g70
g381
I12
tp708
a(g70
g177
I37
tp709
a(g113
g1
I20
tp710
a(g234
g45
I27
tp711
a(g101
g11
I18
tp712
a(g568
S'339375701'
p713
I2
tp714
a(g114
g274
I32
tp715
a(g385
g227
I17
tp716
a(g439
g171
I36
tp717
a(g439
S'1924342320'
p718
I38
tp719
a(g2
g171
I22
tp720
a(g114
g1
I16
tp721
a(g58
g161
I26
tp722
a(g196
S'1928136341'
p723
I2
tp724
a(g73
g53
I4
tp725
a(g571
g474
I7
tp726
a(g148
g261
I10
tp727
a(g339
g22
I4
tp728
a(g196
g88
I8
tp729
a(g178
g129
I30
tp730
a(g209
g352
I4
tp731
a(g22
g196
I39
tp732
a(g331
g344
I5
tp733
a(g336
g313
I23
tp734
a(g72
g268
I32
tp735
a(g221
g186
I15
tp736
a(g198
g268
I8
tp737
a(g266
g209
I4
tp738
a(g11
g166
I6
tp739
a(g336
g352
I4
tp740
a(g164
g169
I34
tp741
a(g66
g341
I27
tp742
a(g317
g31
I34
tp743
a(g53
g424
I35
tp744
a(g456
g5
I38
tp745
a(g33
g169
I4
tp746
a(g359
g104
I5
tp747
a(g67
g226
I29
tp748
a(g139
g261
I15
tp749
a(g718
S'1924342322'
p750
I19
tp751
a(g17
g352
I26
tp752
a(g48
g145
I16
tp753
a(g24
g175
I26
tp754
a(g223
g246
I19
tp755
a(g571
g175
I19
tp756
a(g16
g164
I17
tp757
a(g31
g96
I37
tp758
a(g274
g239
I17
tp759
a(g33
g88
I30
tp760
a(g64
g164
I23
tp761
a(g114
g20
I10
tp762
a(g303
g5
I19
tp763
a(g104
g78
I38
tp764
a(g143
g261
I4
tp765
a(g268
g39
I11
tp766
a(g126
g311
I13
tp767
a(g266
g31
I32
tp768
a(S'1821041631'
p769
g224
I23
tp770
a(g152
g420
I19
tp771
a(g522
g313
I15
tp772
a(g216
g432
I22
tp773
a(g24
g96
I12
tp774
a(g242
g31
I30
tp775
a(g31
g352
I28
tp776
a(g161
g122
I28
tp777
a(g145
g132
I15
tp778
a(g305
g174
I25
tp779
a(g4
g250
I31
tp780
a(g113
g2
I7
tp781
a(g45
g36
I19
tp782
a(g61
g226
I24
tp783
a(g13
g196
I36
tp784
a(g207
g22
I12
tp785
a(g1
g214
I6
tp786
a(g522
g317
I2
tp787
a(g64
g274
I19
tp788
a(g155
g259
I22
tp789
a(S'1450232878'
p790
g205
I9
tp791
a(g122
g274
I23
tp792
a(g137
g268
I4
tp793
a(g75
g48
I11
tp794
a(g119
g39
I23
tp795
a(g77
g73
I39
tp796
a(g62
g39
I25
tp797
a(g64
g183
I32
tp798
a(g718
g286
I13
tp799
a(g27
g244
I24
tp800
a(g439
g460
I36
tp801
a(g27
g177
I36
tp802
a(g221
g107
I26
tp803
a(g135
g664
I8
tp804
a(g276
g535
I19
tp805
a(g2
g107
I23
tp806
a(g122
g166
I23
tp807
a(g45
g169
I30
tp808
a(g75
g424
I9
tp809
a(g406
g664
I28
tp810
a(g525
g145
I18
tp811
a(g86
g261
I35
tp812
a(g339
g2
I10
tp813
a(g70
g178
I25
tp814
a(g121
g169
I38
tp815
a(g323
g152
I20
tp816
a(g341
g39
I32
tp817
a(g7
g104
I6
tp818
a(g121
g46
I25
tp819
a(g188
g209
I20
tp820
a(g214
g292
I39
tp821
a(g460
g2
I11
tp822
a(g142
g261
I32
tp823
a(g19
g171
I37
tp824
a(S'1505832314'
p825
S'281858836'
p826
I21
tp827
a(g119
g226
I6
tp828
a(g629
g96
I20
tp829
a(g359
g7
I11
tp830
a(g272
S'1932767873'
p831
I25
tp832
a(g148
g295
I27
tp833
a(g207
g1
I18
tp834
a(g629
g132
I31
tp835
a(g317
g55
I27
tp836
a(g1
g88
I37
tp837
a(g45
g10
I15
tp838
a(g14
g5
I6
tp839
a(g96
g300
I2
tp840
a(g72
g311
I39
tp841
a(g313
g17
I4
tp842
a(g270
g406
I5
tp843
a(g67
g146
I35
tp844
a(g62
g116
I24
tp845
a(g121
g209
I35
tp846
a(g96
g194
I3
tp847
a(g17
g10
I25
tp848
a(g285
S'1924342249'
p849
I13
tp850
a(g10
g250
I33
tp851
a(g326
g129
I20
tp852
a(g121
g31
I30
tp853
a(g109
g221
I29
tp854
a(g145
g424
I10
tp855
a(g45
g164
I20
tp856
a(g143
g158
I6
tp857
a(g234
S'1926427394'
p858
I20
tp859
a(g33
g274
I37
tp860
a(g121
g196
I38
tp861
a(g114
g5
I18
tp862
a(g58
g274
I19
tp863
a(g38
g227
I21
tp864
a(g20
g88
I24
tp865
a(g14
g93
I24
tp866
a(g285
g750
I3
tp867
a(g77
g226
I25
tp868
a(g77
g72
I21
tp869
a(g424
g328
I1
tp870
a(g432
g148
I22
tp871
a(g522
g30
I11
tp872
a(g62
g38
I38
tp873
a(g121
g274
I38
tp874
a(g53
g132
I37
tp875
a(g16
g64
I12
tp876
a(g226
g311
I37
tp877
a(g7
g283
I25
tp878
a(g224
g261
I20
tp879
a(g303
g456
I21
tp880
a(g456
g19
I3
tp881
a(g194
g175
I32
tp882
a(g221
g274
I39
tp883
a(g439
g109
I13
tp884
a(g196
g122
I28
tp885
a(g769
g223
I9
tp886
a(g45
g161
I22
tp887
a(g146
g328
I22
tp888
a(g257
g420
I28
tp889
a(g36
g41
I26
tp890
a(g121
g101
I18
tp891
a(g522
g31
I32
tp892
a(g148
g155
I15
tp893
a(g250
g122
I27
tp894
a(g460
g214
I10
tp895
a(g126
g341
I35
tp896
a(g13
g186
I20
tp897
a(g4
g43
I17
tp898
a(g16
g45
I4
tp899
a(g216
g246
I27
tp900
a(g72
g227
I13
tp901
a(g155
g294
I33
tp902
a(g113
g107
I21
tp903
a(g460
g19
I26
tp904
a(g769
g151
I35
tp905
a(g460
g456
I30
tp906
a(g1
g272
I34
tp907
a(g86
g143
I36
tp908
a(g126
g276
I20
tp909
a(g67
g48
I35
tp910
a(g139
g259
I32
tp911
a(g224
g158
I18
tp912
a(g142
g139
I17
tp913
a(g96
g509
I6
tp914
a(g77
g116
I16
tp915
a(g242
g182
I22
tp916
a(g276
g116
I35
tp917
a(g424
g56
I27
tp918
a(g20
g166
I30
tp919
a(g24
g525
I19
tp920
a(g96
g175
I32
tp921
a(g69
g381
I11
tp922
a(g629
g299
I10
tp923
a(g61
g137
I9
tp924
a(g339
g460
I22
tp925
a(g75
g56
I36
tp926
a(g637
g374
I23
tp927
a(g22
g460
I22
tp928
a(g126
g104
I28
tp929
a(g98
g501
I21
tp930
a(g72
g62
I8
tp931
a(g305
g509
I38
tp932
a(g282
g105
I34
tp933
a(g209
g31
I30
tp934
a(g101
g169
I28
tp935
a(g152
g535
I24
tp936
a(g161
g209
I27
tp937
a(g223
g432
I26
tp938
a(g2
g200
I22
tp939
a(g328
g49
I3
tp940
a(g221
g200
I26
tp941
a(g45
g122
I11
tp942
a(g131
g328
I9
tp943
a(g96
g56
I35
tp944
a(g326
g270
I28
tp945
a(g629
g146
I4
tp946
a(g73
g145
I39
tp947
a(g131
g146
I13
tp948
a(g248
g146
I22
tp949
a(g188
g266
I24
tp950
a(g196
g250
I8
tp951
a(g382
g135
I22
tp952
a(g61
g341
I39
tp953
a(g83
g352
I12
tp954
a(g90
g501
I13
tp955
a(g198
g385
I10
tp956
a(g77
g117
I21
tp957
a(g114
g166
I32
tp958
a(g406
g244
I11
tp959
a(g231
g282
I10
tp960
a(S'1933039879'
p961
g632
I32
tp962
a(g257
g246
I27
tp963
a(g207
g14
I25
tp964
a(g303
g88
I39
tp965
a(g22
g221
I12
tp966
a(g101
g313
I39
tp967
a(g25
g525
I25
tp968
a(S'1450232746'
p969
S'1585304132'
p970
I15
tp971
a(g504
g629
I28
tp972
a(g276
g117
I24
tp973
a(g242
g10
I36
tp974
a(g234
g164
I20
tp975
a(g109
g13
I35
tp976
a(g20
g5
I27
tp977
a(g161
g17
I18
tp978
a(g114
g214
I22
tp979
a(g27
g445
I34
tp980
a(g19
g221
I17
tp981
a(g62
g226
I13
tp982
a(g248
g226
I39
tp983
a(g341
g117
I31
tp984
a(g58
g11
I16
tp985
a(g143
g224
I24
tp986
a(g20
g196
I31
tp987
a(g161
g317
I24
tp988
a(g207
g4
I23
tp989
a(g11
g274
I10
tp990
a(g460
g5
I9
tp991
a(g250
g11
I6
tp992
a(g161
g10
I8
tp993
a(g62
g237
I29
tp994
a(g288
g420
I8
tp995
a(g261
g496
I36
tp996
a(g22
g214
I32
tp997
a(g61
g385
I2
tp998
a(g326
g305
I34
tp999
a(g266
g46
I24
tp1000
a(g248
g53
I21
tp1001
a(g504
g67
I10
tp1002
a(g113
g460
I15
tp1003
a(g17
g183
I36
tp1004
a(g207
g109
I22
tp1005
a(g73
g299
I18
tp1006
a(g1
g186
I21
tp1007
a(g155
g295
I12
tp1008
a(g445
g326
I31
tp1009
a(g509
g132
I19
tp1010
a(g10
g196
I38
tp1011
a(g105
g283
I13
tp1012
a(g119
g227
I17
tp1013
a(g52
g226
I26
tp1014
a(g121
g83
I30
tp1015
a(g27
g406
I32
tp1016
a(g4
g221
I15
tp1017
a(g456
g107
I5
tp1018
a(g16
g34
I27
tp1019
a(g1
g41
I27
tp1020
a(g67
g39
I37
tp1021
a(g131
g300
I9
tp1022
a(g90
g98
I22
tp1023
a(g25
g145
I21
tp1024
a(g148
g491
I34
tp1025
a(g48
g525
I2
tp1026
a(g504
g525
I27
tp1027
a(g41
g274
I20
tp1028
a(g305
g300
I39
tp1029
a(g313
g59
I32
tp1030
a(g404
g320
I23
tp1031
a(g183
g59
I4
tp1032
a(g61
g119
I29
tp1033
a(g73
g66
I26
tp1034
a(g331
g105
I38
tp1035
a(g769
g216
I20
tp1036
a(g139
g491
I39
tp1037
a(g381
g135
I27
tp1038
a(g142
g155
I7
tp1039
a(g113
g20
I20
tp1040
a(g88
g41
I14
tp1041
a(g19
g186
I17
tp1042
a(g73
g62
I30
tp1043
a(g234
g239
I38
tp1044
a(g164
g183
I39
tp1045
a(g20
g200
I23
tp1046
a(g268
g385
I2
tp1047
a(g164
g250
I34
tp1048
a(g381
g664
I19
tp1049
a(g188
g313
I5
tp1050
a(g207
g19
I14
tp1051
a(g439
g849
I29
tp1052
a(g77
g126
I26
tp1053
a(g72
g226
I5
tp1054
a(g31
g194
I35
tp1055
a(g75
g73
I34
tp1056
a(g359
g8
I19
tp1057
a(g86
g80
I4
tp1058
a(g28
g175
I34
tp1059
a(g203
g174
I15
tp1060
a(g303
g4
I22
tp1061
a(g139
g432
I27
tp1062
a(g33
g17
I37
tp1063
a(g1
g200
I39
tp1064
a(g491
g219
I28
tp1065
a(g336
g263
I6
tp1066
a(g248
g96
I39
tp1067
a(g31
g132
I24
tp1068
a(g88
g34
I15
tp1069
a(g750
g713
I11
tp1070
a(S'1450232746'
p1071
g221
I9
tp1072
a(g157
g81
I28
tp1073
a(g43
g107
I25
tp1074
a(g300
g56
I35
tp1075
a(g25
g175
I26
tp1076
a(g58
g45
I5
tp1077
a(g439
g713
I31
tp1078
a(g128
g178
I10
tp1079
a(g25
g49
I26
tp1080
a(g121
g522
I31
tp1081
a(g113
g109
I19
tp1082
a(g75
g146
I15
tp1083
a(g86
g157
I7
tp1084
a(g1
g456
I35
tp1085
a(g336
g266
I2
tp1086
a(g299
g509
I20
tp1087
a(g460
g186
I17
tp1088
a(g72
g78
I24
tp1089
a(g276
g311
I15
tp1090
a(g31
g300
I37
tp1091
a(g48
g300
I17
tp1092
a(g90
g99
I1
tp1093
a(g73
g96
I37
tp1094
a(g242
g161
I28
tp1095
a(g336
g30
I3
tp1096
a(g10
g122
I20
tp1097
a(g48
g328
I16
tp1098
a(g10
g274
I38
tp1099
a(g24
g328
I18
tp1100
a(g359
g126
I33
tp1101
a(g27
g129
I21
tp1102
a(g45
g166
I21
tp1103
a(g226
g117
I32
tp1104
a(g182
g164
I14
tp1105
a(g73
g48
I23
tp1106
a(g522
g161
I22
tp1107
a(g58
g164
I22
tp1108
a(g571
g424
I21
tp1109
a(g522
g352
I11
tp1110
a(g67
g227
I29
tp1111
a(g157
g520
I11
tp1112
a(g504
g341
I24
tp1113
a(g250
g239
I23
tp1114
a(g1
g19
I31
tp1115
a(g75
g629
I18
tp1116
a(g169
g274
I33
tp1117
a(g25
g132
I36
tp1118
a(g80
g432
I34
tp1119
a(g11
g34
I11
tp1120
a(g33
g182
I39
tp1121
a(g234
g101
I27
tp1122
a(g231
g535
I16
tp1123
a(S'1505832350'
p1124
g826
I30
tp1125
a(g188
g83
I12
tp1126
a(g2
g41
I23
tp1127
a(g504
g119
I39
tp1128
a(g146
g424
I24
tp1129
a(g177
g406
I5
tp1130
a(g10
g36
I33
tp1131
a(g119
g385
I32
tp1132
a(g45
g183
I39
tp1133
a(g75
g300
I5
tp1134
a(g161
g83
I22
tp1135
a(g4
g196
I24
tp1136
a(g336
g164
I32
tp1137
a(g272
g214
I30
tp1138
a(g22
g1
I26
tp1139
a(g96
g328
I6
tp1140
a(g352
g56
I39
tp1141
a(g303
g107
I25
tp1142
a(g36
g274
I12
tp1143
a(g145
g175
I30
tp1144
a(g161
g31
I27
tp1145
a(g73
g509
I38
tp1146
a(g55
g166
I39
tp1147
a(g80
g219
I16
tp1148
a(g75
g248
I36
tp1149
a(g49
g175
I33
tp1150
a(g101
g196
I20
tp1151
a(g397
g326
I4
tp1152
a(g283
g117
I39
tp1153
a(g456
g13
I12
tp1154
a(g75
g299
I16
tp1155
a(g39
g237
I3
tp1156
a(g53
g145
I35
tp1157
a(g11
g59
I34
tp1158
a(g20
g214
I31
tp1159
a(g48
g299
I5
tp1160
a(g143
g432
I16
tp1161
a(g535
g283
I5
tp1162
a(g20
g36
I37
tp1163
a(g509
g175
I27
tp1164
a(g30
g17
I26
tp1165
a(g300
g194
I1
tp1166
a(g22
g41
I19
tp1167
a(g46
g31
I38
tp1168
a(g270
g174
I39
tp1169
a(g750
g286
I7
tp1170
a(g109
g43
I27
tp1171
a(g328
g56
I29
tp1172
a(g629
g328
I25
tp1173
a(g336
g83
I9
tp1174
a(g17
g317
I14
tp1175
a(g326
g174
I14
tp1176
a(g13
g107
I17
tp1177
a(g53
g146
I23
tp1178
a(g139
g295
I22
tp1179
a(g101
g250
I16
tp1180
a(g825
S'2888358094'
p1181
I8
tp1182
a(g849
g286
I2
tp1183
a(g303
g460
I10
tp1184
a(g276
g78
I29
tp1185
a(g242
g30
I2
tp1186
a(g67
g629
I30
tp1187
a(g88
g166
I12
tp1188
a(g270
g664
I33
tp1189
a(g226
g237
I21
tp1190
a(g491
g520
I20
tp1191
a(g109
g171
I28
tp1192
a(g126
g7
I22
tp1193
a(g45
g55
I18
tp1194
a(g75
g509
I8
tp1195
a(g131
g571
I18
tp1196
a(g67
g119
I31
tp1197
a(g320
g91
I10
tp1198
a(g177
g382
I37
tp1199
a(g196
g36
I5
tp1200
a(g535
g105
I18
tp1201
a(g45
g188
I35
tp1202
a(g131
g31
I36
tp1203
a(g295
g259
I9
tp1204
a(g55
g59
I37
tp1205
a(g126
g8
I34
tp1206
a(g331
g501
I1
tp1207
a(g266
g161
I32
tp1208
a(g382
g178
I28
tp1209
a(g432
g261
I11
tp1210
a(g53
g300
I35
tp1211
a(g148
g496
I26
tp1212
a(g248
g525
I27
tp1213
a(g4
g88
I16
tp1214
a(g8
g420
I36
tp1215
a(g198
g226
I35
tp1216
a(g276
g8
I15
tp1217
a(g7
g311
I14
tp1218
a(g234
g17
I18
tp1219
a(g303
g14
I21
tp1220
a(g114
g200
I31
tp1221
a(g105
g91
I36
tp1222
a(g198
g39
I17
tp1223
a(g568
g750
I13
tp1224
a(g192
g244
I17
tp1225
a(g31
g10
I30
tp1226
a(g231
g311
I22
tp1227
a(g101
g239
I11
tp1228
a(g16
g182
I32
tp1229
a(g88
g122
I35
tp1230
a(g58
g55
I21
tp1231
a(g439
g568
I33
tp1232
a(g33
g188
I39
tp1233
a(g67
g299
I30
tp1234
a(g24
g300
I12
tp1235
a(g339
g5
I30
tp1236
a(g328
g175
I37
tp1237
a(g114
g43
I11
tp1238
a(g116
g119
I11
tp1239
a(g64
g188
I36
tp1240
a(g525
g299
I2
tp1241
a(g248
g67
I18
tp1242
a(g61
g38
I6
tp1243
a(g146
g300
I19
tp1244
a(g109
g20
I39
tp1245
a(g64
g239
I15
tp1246
a(g75
g132
I13
tp1247
a(g17
g164
I16
tp1248
a(g58
g182
I35
tp1249
a(g339
g4
I21
tp1250
a(g313
g161
I22
tp1251
a(g164
g239
I30
tp1252
a(g1
g14
I7
tp1253
a(g4
g214
I30
tp1254
a(g33
g101
I32
tp1255
a(g629
g424
I27
tp1256
a(g80
g157
I3
tp1257
a(g55
g169
I35
tp1258
a(g131
g49
I9
tp1259
a(g75
g96
I3
tp1260
a(g128
g192
I13
tp1261
a(g131
g248
I34
tp1262
a(g119
g237
I27
tp1263
a(g4
g2
I20
tp1264
a(g128
g382
I19
tp1265
a(g182
g169
I38
tp1266
a(g339
g456
I8
tp1267
a(g504
g66
I22
tp1268
a(g101
g161
I24
tp1269
a(g142
g294
I26
tp1270
a(g77
g119
I20
tp1271
a(g25
g328
I29
tp1272
a(g525
g132
I22
tp1273
a(g161
g56
I33
tp1274
a(g116
g237
I38
tp1275
a(g504
g53
I10
tp1276
a(g137
g119
I38
tp1277
a(g75
g571
I16
tp1278
a(g16
g31
I39
tp1279
a(g445
g175
I20
tp1280
a(g849
g568
I3
tp1281
a(g69
g192
I37
tp1282
a(g209
g164
I30
tp1283
a(g17
g169
I36
tp1284
a(g263
g10
I32
tp1285
a(g313
g83
I14
tp1286
a(g14
g292
I38
tp1287
a(g27
g397
I9
tp1288
a(g155
g158
I27
tp1289
a(g283
g8
I9
tp1290
a(g456
g2
I18
tp1291
a(g288
g8
I31
tp1292
a(g58
g34
I20
tp1293
a(g221
g171
I21
tp1294
a(g234
g83
I32
tp1295
a(g525
g300
I19
tp1296
a(g30
g55
I34
tp1297
a(g45
g313
I38
tp1298
a(g114
g36
I36
tp1299
a(g13
g5
I29
tp1300
a(g78
g116
I6
tp1301
a(g313
g182
I6
tp1302
a(g33
g16
I37
tp1303
a(g221
g5
I17
tp1304
a(g831
g292
I16
tp1305
a(g525
g146
I12
tp1306
a(g137
g226
I32
tp1307
a(g471
g259
I28
tp1308
a(g313
g183
I36
tp1309
a(g58
g234
I25
tp1310
a(g24
g194
I14
tp1311
a(g525
g194
I19
tp1312
a(g93
g272
I4
tp1313
a(g122
g56
I41
tp1314
a(g313
g164
I20
tp1315
a(g445
g571
I34
tp1316
a(g268
g119
I34
tp1317
a(g406
g129
I12
tp1318
a(g137
g198
I3
tp1319
a(g300
g49
I2
tp1320
a(g303
g186
I8
tp1321
a(g75
g328
I7
tp1322
a(g66
g53
I30
tp1323
a(g58
g16
I10
tp1324
a(g268
g226
I29
tp1325
a(g16
g88
I36
tp1326
a(g121
g166
I36
tp1327
a(g55
g10
I6
tp1328
a(g182
g352
I24
tp1329
a(g207
g171
I24
tp1330
a(g234
g313
I19
tp1331
a(S'1606967716'
p1332
g20
I8
tp1333
a(g101
g36
I16
tp1334
a(g157
g261
I30
tp1335
a(g445
g203
I9
tp1336
a(g13
g41
I16
tp1337
a(g135
g406
I20
tp1338
a(g33
g196
I28
tp1339
a(g148
g158
I12
tp1340
a(g826
g582
I19
tp1341
a(g274
g166
I3
tp1342
a(g221
g2
I5
tp1343
a(g114
g339
I19
tp1344
a(g288
g323
I17
tp1345
a(g769
g432
I30
tp1346
a(g119
g117
I25
tp1347
a(g424
g194
I6
tp1348
a(g299
g145
I21
tp1349
a(g397
g244
I24
tp1350
a(g134
g192
I23
tp1351
a(g224
g246
I38
tp1352
a(g72
g126
I33
tp1353
a(g16
g166
I26
tp1354
a(g263
g55
I27
tp1355
a(g34
g166
I5
tp1356
a(g404
g344
I22
tp1357
a(g107
g41
I32
tp1358
a(g248
g341
I35
tp1359
a(g131
g75
I3
tp1360
a(g134
g406
I33
tp1361
a(g248
g48
I28
tp1362
a(g2
g186
I10
tp1363
a(g101
g166
I18
tp1364
a(g221
g34
I39
tp1365
a(g19
g214
I37
tp1366
a(g48
g146
I12
tp1367
a(g4
g200
I32
tp1368
a(g266
g17
I26
tp1369
a(g571
g305
I31
tp1370
a(g242
g17
I23
tp1371
a(g75
g194
I5
tp1372
a(g188
g10
I25
tp1373
a(g16
g55
I15
tp1374
a(g522
g336
I8
tp1375
a(g22
g171
I33
tp1376
a(g43
g41
I21
tp1377
a(g86
g491
I16
tp1378
a(g69
g178
I29
tp1379
a(g72
g237
I25
tp1380
a(g381
g192
I38
tp1381
a(g58
g88
I27
tp1382
a(g73
g328
I39
tp1383
a(g231
g105
I23
tp1384
a(g1
g43
I15
tp1385
a(g121
g10
I0
tp1386
a(g359
g282
I19
tp1387
a(g19
g5
I34
tp1388
a(g13
g2
I12
tp1389
a(g83
g30
I12
tp1390
a(g67
g62
I16
tp1391
a(g45
g64
I7
tp1392
a(g188
g169
I38
tp1393
a(g72
g39
I21
tp1394
a(g64
g88
I25
tp1395
a(g22
g20
I8
tp1396
a(g129
g28
I36
tp1397
a(g48
g194
I17
tp1398
a(g207
g456
I17
tp1399
a(g27
g174
I12
tp1400
a(g525
g31
I39
tp1401
a(g113
g186
I3
tp1402
a(g341
g62
I7
tp1403
a(g14
g272
I29
tp1404
a(g131
g504
I37
tp1405
a(g46
g183
I38
tp1406
a(g14
g2
I23
tp1407
a(g504
g299
I24
tp1408
a(g295
g158
I39
tp1409
a(g216
g224
I14
tp1410
a(g157
g432
I32
tp1411
a(g285
g713
I14
tp1412
a(g177
g664
I23
tp1413
a(g114
g171
I23
tp1414
a(g145
g194
I3
tp1415
a(g46
g164
I16
tp1416
a(g114
g22
I16
tp1417
a(g20
g250
I39
tp1418
a(g83
g209
I8
tp1419
a(g24
g49
I15
tp1420
a(g24
g145
I10
tp1421
a(g164
g11
I37
tp1422
a(g99
g501
I12
tp1423
a(g223
g491
I36
tp1424
a(g31
g56
I11
tp1425
a(S'1924311114'
p1426
g31
I38
tp1427
a(g571
g525
I26
tp1428
a(S'281858850'
p1429
g582
I27
tp1430
a(g331
g91
I2
tp1431
a(g5
g88
I37
tp1432
a(g234
g46
I20
tp1433
a(g121
g45
I15
tp1434
a(g397
g445
I35
tp1435
a(g456
g200
I5
tp1436
a(g53
g49
I36
tp1437
a(g24
g48
I18
tp1438
a(g336
g182
I22
tp1439
a(g336
g55
I33
tp1440
a(g198
g237
I14
tp1441
a(g72
g137
I35
tp1442
a(g522
g10
I31
tp1443
a(g4
g19
I23
tp1444
a(g231
g77
I42
tp1445
a(g313
g317
I14
tp1446
a(g571
g300
I13
tp1447
a(g849
g713
I1
tp1448
a(g305
g203
I11
tp1449
a(g64
g182
I35
tp1450
a(g522
g83
I1
tp1451
a(g114
g2
I14
tp1452
a(g69
g128
I24
tp1453
a(g571
g25
I14
tp1454
a(g161
g239
I31
tp1455
a(g522
g234
I33
tp1456
a(g203
g175
I28
tp1457
a(g4
g456
I26
tp1458
a(g303
g19
I17
tp1459
a(g101
g183
I37
tp1460
a(g266
g352
I3
tp1461
a(g72
g341
I12
tp1462
a(g288
g152
I11
tp1463
a(g36
g122
I25
tp1464
a(g98
g344
I20
tp1465
a(g504
g146
I33
tp1466
a(g825
g1124
I9
tp1467
a(g432
g491
I26
tp1468
a(g432
g155
I36
tp1469
a(g58
g10
I19
tp1470
a(g522
g17
I15
tp1471
a(g46
g59
I34
tp1472
a(g359
g535
I23
tp1473
a(g299
g424
I22
tp1474
a(g535
S'1933039913'
p1475
I4
tp1476
a(g22
g13
I3
tp1477
a(g1
g171
I7
tp1478
a(g1124
g1181
I17
tp1479
a(g113
g214
I25
tp1480
a(g77
g66
I25
tp1481
a(g22
g34
I35
tp1482
a(g194
g132
I11
tp1483
a(g91
g344
I7
tp1484
a(g196
g34
I11
tp1485
a(g22
g14
I34
tp1486
a(g126
g226
I32
tp1487
a(g266
g263
I9
tp1488
a(g234
g36
I30
tp1489
a(g439
g2
I38
tp1490
a(g14
g214
I1
tp1491
a(g113
g456
I18
tp1492
a(g381
g134
I14
tp1493
a(g75
g175
I35
tp1494
a(g183
g250
I27
tp1495
a(g313
g10
I29
tp1496
a(g139
g143
I11
tp1497
a(g131
g145
I9
tp1498
a(g460
g93
I35
tp1499
a(g207
g41
I26
tp1500
a(g48
g509
I16
tp1501
a(g445
g305
I2
tp1502
a(g86
g432
I39
tp1503
a(g58
g41
I38
tp1504
a(g64
g101
I4
tp1505
a(g285
g439
I16
tp1506
a(g196
g41
I20
tp1507
a(g209
g124
I34
tp1508
a(g424
g300
I8
tp1509
a(g104
g8
I17
tp1510
a(g33
g166
I33
tp1511
a(g20
g34
I28
tp1512
a(g121
g58
I19
tp1513
a(g231
g359
I25
tp1514
a(g282
g116
I30
tp1515
a(g750
g109
I33
tp1516
a(g456
g20
I17
tp1517
a(g406
g192
I9
tp1518
a(g221
g214
I20
tp1519
a(g629
g571
I24
tp1520
a(g664
g244
I36
tp1521
a(g385
g39
I9
tp1522
a(g128
g406
I23
tp1523
a(g121
g317
I32
tp1524
a(g121
g313
I29
tp1525
a(g439
g750
I20
tp1526
a(g131
g509
I10
tp1527
a(g268
g237
I7
tp1528
a(g96
g132
I13
tp1529
a(g404
g99
I24
tp1530
a(g16
g234
I28
tp1531
a(g632
g283
I34
tp1532
a(g64
g10
I21
tp1533
a(g20
g274
I29
tp1534
a(g121
g239
I23
tp1535
a(g142
g496
I3
tp1536
a(g341
g226
I16
tp1537
a(g182
g31
I37
tp1538
a(g126
g62
I39
tp1539
a(g45
g196
I23
tp1540
a(g70
g192
I33
tp1541
a(g571
g132
I26
tp1542
a(g143
g295
I33
tp1543
a(g146
g194
I20
tp1544
a(g121
g336
I38
tp1545
a(g31
g164
I32
tp1546
a(g142
g148
I22
tp1547
a(g121
g55
I6
tp1548
a(g188
g183
I38
tp1549
a(g46
g17
I1
tp1550
a(S'1923744268'
p1551
g311
I23
tp1552
a(g460
g200
I34
tp1553
a(g328
g194
I4
tp1554
a(g397
g28
I21
tp1555
a(g582
g1181
I32
tp1556
a(g359
g276
I15
tp1557
a(g113
g339
I11
tp1558
a(g16
g36
I24
tp1559
a(g25
g48
I25
tp1560
a(g460
g14
I12
tp1561
a(g242
g336
I1
tp1562
a(g282
g535
I23
tp1563
a(g75
g53
I30
tp1564
a(g303
g109
I21
tp1565
a(g439
g14
I37
tp1566
a(g45
g182
I34
tp1567
a(g48
g424
I17
tp1568
a(g188
g161
I18
tp1569
a(g509
g300
I6
tp1570
a(g46
g182
I1
tp1571
a(g113
g13
I16
tp1572
a(g250
g274
I15
tp1573
a(g67
g525
I33
tp1574
a(g266
g83
I12
tp1575
a(S'2017459396'
p1576
g239
I17
tp1577
a(g207
g214
I23
tp1578
a(g341
g116
I20
tp1579
a(g17
g182
I2
tp1580
a(g268
g227
I19
tp1581
a(g49
g132
I10
tp1582
a(g16
g196
I28
tp1583
a(g535
g420
I38
tp1584
a(g276
g152
I37
tp1585
a(g139
g496
I21
tp1586
a(g188
g17
I1
tp1587
a(g424
g175
I38
tp1588
a(g80
g261
I32
tp1589
a(g52
g117
I33
tp1590
a(g73
g525
I21
tp1591
a(g58
g166
I17
tp1592
a(g19
g200
I8
tp1593
a(g305
g175
I18
tp1594
a(g849
g750
I9
tp1595
a(g13
g171
I33
tp1596
a(g188
g31
I38
tp1597
a(g1
g107
I39
tp1598
a(g116
g39
I35
tp1599
a(g4
g13
I14
tp1600
a(g131
g175
I38
tp1601
a(g460
g13
I22
tp1602
a(g73
g424
I39
tp1603
a(g188
g263
I15
tp1604
a(g52
g66
I18
tp1605
a(g231
g8
I15
tp1606
a(g13
g88
I30
tp1607
a(g460
g107
I35
tp1608
a(g16
g59
I39
tp1609
a(g248
g299
I24
tp1610
a(g169
g59
I11
tp1611
a(g242
g188
I21
tp1612
a(g501
g344
I6
tp1613
a(g131
g525
I9
tp1614
a(g64
S'1928136340'
p1615
I12
tp1616
a(g381
g128
I25
tp1617
a(g242
g124
I33
tp1618
a(g58
g46
I36
tp1619
a(g7
g78
I31
tp1620
a(g571
g48
I24
tp1621
a(g341
g119
I15
tp1622
a(g31
g145
I39
tp1623
a(g341
g227
I24
tp1624
a(g13
g221
I11
tp1625
a(g629
g300
I23
tp1626
a(g27
g305
I37
tp1627
a(g313
g55
I23
tp1628
a(g139
g158
I17
tp1629
a(g88
g274
I14
tp1630
a(g629
g194
I24
tp1631
a(g38
g237
I9
tp1632
a(g522
g209
I7
tp1633
a(g326
g203
I22
tp1634
a(g471
g496
I39
tp1635
a(g303
g339
I13
tp1636
a(g571
g146
I19
tp1637
a(g522
g266
I11
tp1638
a(g439
g214
I37
tp1639
a(g33
g45
I34
tp1640
a(g571
g96
I13
tp1641
a(g1
S'1928136290'
p1642
I4
tp1643
a(g98
g320
I21
tp1644
a(g336
g124
I32
tp1645
a(g19
g109
I32
tp1646
a(g192
g129
I22
tp1647
a(g137
g62
I39
tp1648
a(g98
g331
I21
tp1649
a(g317
g182
I12
tp1650
a(g305
g145
I38
tp1651
a(g460
g43
I10
tp1652
a(g352
g164
I32
tp1653
a(g137
g385
I6
tp1654
a(g16
g46
I33
tp1655
a(g381
g178
I33
tp1656
a(g299
g96
I19
tp1657
a(g169
g196
I24
tp1658
a(g77
g62
I21
tp1659
a(g263
g164
I25
tp1660
a(g58
g196
I18
tp1661
a(g263
g124
I36
tp1662
a(g13
g200
I18
tp1663
a(g629
g525
I11
tp1664
a(g62
g385
I34
tp1665
a(g16
g250
I24
tp1666
a(g299
g328
I21
tp1667
a(g46
g263
I15
tp1668
a(g73
g341
I30
tp1669
a(g270
g178
I24
tp1670
a(g629
g145
I21
tp1671
a(g188
g59
I34
tp1672
a(g134
g664
I4
tp1673
a(g114
g250
I37
tp1674
a(g145
g300
I2
tp1675
a(g36
g723
I3
tp1676
a(g339
g41
I23
tp1677
a(g53
g509
I34
tp1678
a(g231
g7
I15
tp1679
a(g146
g509
I14
tp1680
a(g46
g352
I24
tp1681
a(g352
g124
I34
tp1682
a(g282
g78
I24
tp1683
a(g101
g88
I29
tp1684
a(g78
g226
I24
tp1685
a(g169
g36
I20
tp1686
a(g72
g52
I21
tp1687
a(g186
g200
I21
tp1688
a(g83
g17
I14
tp1689
a(S'1450232878'
p1690
g2
I3
tp1691
a(g4
S'1951503146'
p1692
I3
tp1693
a(g80
g491
I12
tp1694
a(g135
g192
I11
tp1695
a(g268
g38
I1
tp1696
a(g126
g283
I38
tp1697
a(g126
g535
I36
tp1698
a(g128
g270
I28
tp1699
a(g629
g509
I18
tp1700
a(g22
g5
I29
tp1701
a(g135
g129
I33
tp1702
a(g242
g55
I32
tp1703
a(g456
g221
I21
tp1704
a(g7
g152
I36
tp1705
a(g43
g171
I21
tp1706
a(g520
g219
I7
tp1707
a(g359
g117
I39
tp1708
a(g303
g114
I16
tp1709
a(g109
g214
I28
tp1710
a(g397
g203
I26
tp1711
a(g5
g214
I4
tp1712
a(g339
g107
I13
tp1713
a(g339
g171
I33
tp1714
a(g55
g196
I39
tp1715
a(g121
g16
I11
tp1716
a(g64
g17
I35
tp1717
a(g303
g2
I3
tp1718
a(g177
g270
I10
tp1719
a(g231
g116
I35
tp1720
a(g13
g11
I39
tp1721
a(g10
g239
I23
tp1722
a(g107
g200
I2
tp1723
a(g158
g491
I27
tp1724
a(g299
g53
I14
tp1725
a(g139
g155
I10
tp1726
a(g231
g283
I17
tp1727
a(g33
g250
I21
tp1728
a(g33
g55
I38
tp1729
a(g131
g48
I7
tp1730
a(g70
g664
I16
tp1731
a(g336
g317
I9
tp1732
a(g234
g64
I24
tp1733
a(g568
g718
I7
tp1734
a(g234
g183
I19
tp1735
a(g20
g171
I32
tp1736
a(g36
g59
I31
tp1737
a(g77
g311
I38
tp1738
a(g101
g10
I18
tp1739
a(g16
g10
I11
tp1740
a(g56
g132
I22
tp1741
a(g109
g5
I31
tp1742
a(g7
g535
I21
tp1743
a(g113
g200
I20
tp1744
a(g78
g311
I20
tp1745
a(g174
g28
I4
tp1746
a(g83
g182
I12
tp1747
a(g214
g41
I33
tp1748
a(g221
g43
I2
tp1749
a(g171
g292
I39
tp1750
a(g146
g175
I37
tp1751
a(g80
g224
I39
tp1752
a(g300
g328
I6
tp1753
a(g25
g194
I25
tp1754
a(g288
g283
I35
tp1755
a(g46
g317
I12
tp1756
a(g157
g143
I31
tp1757
a(g121
g263
I32
tp1758
a(g46
g169
I38
tp1759
a(g266
g55
I36
tp1760
a(g30
g164
I33
tp1761
a(g769
g491
I32
tp1762
a(g30
g317
I12
tp1763
a(g41
g1576
I20
tp1764
a(g209
g17
I22
tp1765
a(g72
S'1926335103'
p1766
I7
tp1767
a(g221
g41
I18
tp1768
a(g46
g209
I20
tp1769
a(g250
g59
I28
tp1770
a(g41
g166
I21
tp1771
a(g121
g161
I8
tp1772
a(g152
g283
I26
tp1773
a(g53
g194
I36
tp1774
a(g139
g224
I35
tp1775
a(g231
g104
I20
tp1776
a(g129
g244
I11
tp1777
a(g198
g38
I6
tp1778
a(g320
g99
I2
tp1779
a(g522
g46
I13
tp1780
a(g104
g152
I32
tp1781
a(g20
g2
I14
tp1782
a(g250
g88
I14
tp1783
a(g96
g146
I17
tp1784
a(g339
g1
I26
tp1785
a(g33
S'1924311191'
p1786
I19
tp1787
a(g109
g2
I24
tp1788
a(g171
g41
I34
tp1789
a(g161
g55
I4
tp1790
a(g113
g41
I30
tp1791
a(g161
g30
I30
tp1792
a(g25
g299
I26
tp1793
a(g339
g14
I34
tp1794
a(g20
g107
I22
tp1795
a(g849
g718
I11
tp1796
a(g404
g90
I24
tp1797
a(g285
g718
I22
tp1798
a(g64
g250
I12
tp1799
a(g226
g39
I17
tp1800
a(g22
g4
I17
tp1801
a(g20
g43
I13
tp1802
a(g69
g664
I20
tp1803
a(g126
g116
I15
tp1804
a(g70
g135
I22
tp1805
a(g45
g88
I31
tp1806
a(g20
g221
I12
tp1807
a(g303
g221
I7
tp1808
a(g509
g49
I9
tp1809
a(g317
g263
I3
tp1810
a(g52
g67
I19
tp1811
a(g151
g323
I17
tp1812
a(g303
g200
I24
tp1813
a(g142
g158
I34
tp1814
a(g231
g117
I22
tp1815
a(g33
g313
I38
tp1816
a(g114
g14
I24
tp1817
a(g4
g107
I31
tp1818
a(g93
g171
I25
tp1819
a(g64
g11
I14
tp1820
a(g313
g263
I17
tp1821
a(g91
g501
I1
tp1822
a(g64
g196
I17
tp1823
a(g109
g186
I15
tp1824
a(g30
g263
I9
tp1825
a(g270
g244
I10
tp1826
a(g404
g91
I24
tp1827
a(g43
g186
I13
tp1828
a(g38
g385
I4
tp1829
a(g134
g178
I19
tp1830
a(g121
g64
I21
tp1831
a(g248
g62
I30
tp1832
a(g64
g161
I27
tp1833
a(g261
g491
I28
tp1834
a(g114
g186
I24
tp1835
a(g1429
g581
I11
tp1836
a(g535
g632
I38
tp1837
a(g2
g214
I22
tp1838
a(g276
g282
I4
tp1839
a(g146
g49
I21
tp1840
a(g826
g1181
I12
tp1841
a(g145
g56
I37
tp1842
a(g80
g143
I32
tp1843
a(g66
g62
I33
tp1844
a(g126
g119
I26
tp1845
a(g274
g34
I1
tp1846
a(g718
g713
I9
tp1847
a(g86
g520
I4
tp1848
a(g234
g169
I18
tp1849
a(g1
g93
I30
tp1850
a(g336
g10
I38
tp1851
a(g248
g509
I36
tp1852
a(g509
g328
I13
tp1853
a(g4
g274
I24
tp1854
a(g131
g24
I14
tp1855
a(g303
g41
I26
tp1856
a(g117
g311
I19
tp1857
a(g629
g24
I16
tp1858
a(g336
g161
I30
tp1859
a(g571
g299
I28
tp1860
a(g317
g352
I12
tp1861
a(g113
g22
I14
tp1862
a(g323
g420
I22
tp1863
a(g207
g43
I6
tp1864
a(g224
g432
I8
tp1865
a(g77
g341
I14
tp1866
a(g266
g317
I12
tp1867
a(g629
g25
I17
tp1868
a(g73
g146
I27
tp1869
a(g114
g196
I30
tp1870
a(g313
g266
I26
tp1871
a(g45
g59
I37
tp1872
a(g135
g178
I8
tp1873
a(g336
g209
I2
tp1874
a(g16
g122
I10
tp1875
a(g313
g46
I4
tp1876
a(g19
g107
I9
tp1877
a(g234
g317
I32
tp1878
a(g1766
g311
I32
tp1879
a(g207
g460
I13
tp1880
a(g456
g43
I20
tp1881
a(g121
g34
I38
tp1882
a(g58
g17
I35
tp1883
a(g151
g257
I11
tp1884
a(g16
g188
I33
tp1885
a(g504
g73
I6
tp1886
a(g104
g117
I34
tp1887
a(g525
g328
I18
tp1888
a(g27
g326
I9
tp1889
a(g664
g178
I16
tp1890
a(g31
g328
I30
tp1891
a(g25
g300
I23
tp1892
a(g145
g509
I4
tp1893
a(g14
g43
I22
tp1894
a(g382
g134
I9
tp1895
a(g223
g151
I30
tp1896
a(g131
g629
I16
tp1897
a(g101
g188
I36
tp1898
a(g64
g59
I31
tp1899
a(g7
g105
I36
tp1900
a(g7
g117
I27
tp1901
a(g70
g134
I13
tp1902
a(g270
g135
I25
tp1903
a(g17
g59
I32
tp1904
a(g317
g10
I32
tp1905
a(g460
g109
I25
tp1906
a(g64
g55
I22
tp1907
a(g339
g20
I12
tp1908
a(g114
g456
I26
tp1909
a(g295
g496
I1
tp1910
a(g104
g283
I26
tp1911
a(g209
g182
I20
tp1912
a(g248
g227
I34
tp1913
a(g224
g491
I29
tp1914
a(g17
g263
I17
tp1915
a(g101
g164
I22
tp1916
a(g31
g424
I28
tp1917
a(g58
g169
I25
tp1918
a(g122
g239
I5
tp1919
a(g4
g36
I29
tp1920
a(g83
g263
I3
tp1921
a(g104
g420
I35
tp1922
a(g522
g164
I24
tp1923
a(g121
g250
I33
tp1924
a(g75
g525
I13
tp1925
a(g196
g166
I6
tp1926
a(g16
g101
I7
tp1927
a(g1429
g701
I35
tp1928
a(g299
g146
I12
tp1929
a(g72
g385
I30
tp1930
a(g300
g175
I31
tp1931
a(g17
g55
I18
tp1932
a(g525
g96
I16
tp1933
a(g113
g221
I12
tp1934
a(g128
g244
I30
tp1935
a(g105
g501
I37
tp1936
a(g177
g128
I17
tp1937
a(g90
g331
I11
tp1938
a(g299
g194
I22
tp1939
a(g113
g43
I10
tp1940
a(g196
g59
I35
tp1941
a(g261
g520
I39
tp1942
a(g266
g124
I31
tp1943
a(g31
g49
I34
tp1944
a(g90
g344
I6
tp1945
a(g460
g4
I23
tp1946
a(g1551
g420
I30
tp1947
a(g186
g214
I25
tp1948
a(g382
g664
I14
tp1949
a(g174
g129
I32
tp1950
a(g114
g19
I22
tp1951
a(g169
g11
I23
tp1952
a(g188
g46
I0
tp1953
a(g58
g188
I36
tp1954
a(g629
g53
I19
tp1955
a(g69
g135
I27
tp1956
a(g157
g219
I19
tp1957
a(g234
g196
I36
tp1958
a(g339
g43
I11
tp1959
a(g535
g117
I38
tp1960
a(g114
g34
I32
tp1961
a(g101
g55
I20
tp1962
a(g64
g313
I38
tp1963
a(g535
g311
I34
tp1964
a(g182
g59
I34
tp1965
a(g248
g73
I22
tp1966
a(g83
g317
I2
tp1967
a(g5
g186
I25
tp1968
a(g113
g303
I6
tp1969
a(g164
g36
I35
tp1970
a(g45
g239
I11
tp1971
a(g5
g171
I5
tp1972
a(g131
g299
I12
tp1973
a(g113
g4
I27
tp1974
a(g397
g305
I38
tp1975
a(g81
g219
I9
tp1976
a(g41
g239
I38
tp1977
a(g157
g491
I9
tp1978
a(g183
g88
I36
tp1979
a(g504
g77
I33
tp1980
a(g161
g263
I24
tp1981
a(g522
g188
I13
tp1982
a(g78
g119
I18
tp1983
a(g114
g13
I13
tp1984
a(g62
g53
I33
tp1985
a(g13
g20
I5
tp1986
a(g75
g145
I5
tp1987
a(g7
g116
I37
tp1988
a(g285
g109
I30
tp1989
a(g11
g239
I21
tp1990
a(g155
g496
I11
tp1991
a(g77
g67
I30
tp1992
a(g101
g46
I36
tp1993
a(g826
g581
I35
tp1994
a(g83
g124
I38
tp1995
a(g58
g313
I39
tp1996
a(g629
g49
I24
tp1997
a(g45
g17
I34
tp1998
a(g276
g104
I10
tp1999
a(g313
g209
I22
tp2000
a(g385
g237
I5
tp2001
a(g152
g105
I37
tp2002
a(g331
g320
I8
tp2003
a(g45
g274
I22
tp2004
a(g104
g311
I19
tp2005
a(g183
g36
I30
tp2006
a(g30
g10
I38
tp2007
a(g266
g182
I24
tp2008
a(g114
g11
I33
tp2009
a(g61
g268
I5
tp2010
a(g70
g128
I20
tp2011
a(g323
g257
I7
tp2012
a(g161
g36
I39
tp2013
a(g250
g36
I3
tp2014
a(g105
g8
I22
tp2015
a(g504
g248
I24
tp2016
a(g4
g186
I30
tp2017
a(g769
g246
I20
tp2018
a(g101
g274
I20
tp2019
a(g52
g116
I25
tp2020
a(g456
g109
I35
tp2021
a(g58
g36
I14
tp2022
a(g113
g5
I24
tp2023
a(g114
g109
I38
tp2024
a(g186
g107
I23
tp2025
a(g276
g283
I23
tp2026
a(g286
g713
I4
tp2027
a(g288
g276
I41
tp2028
a(g93
g292
I14
tp2029
a(g282
g8
I19
tp2030
a(g300
g132
I13
tp2031
a(g152
g8
I24
tp2032
a(g248
g629
I18
tp2033
a(g282
g104
I14
tp2034
a(S'1925449471'
p2035
g7
I7
tp2036
a(g93
g214
I25
tp2037
a(g525
g53
I16
tp2038
a(g93
g831
I30
tp2039
a(g151
g420
I28
tp2040
a(g13
g166
I35
tp2041
a(g445
g28
I19
tp2042
a(g16
g169
I34
tp2043
a(g460
g20
I22
tp2044
a(g242
g263
I6
tp2045
a(g161
g352
I29
tp2046
a(g83
g31
I32
tp2047
a(g62
g117
I36
tp2048
a(g303
g22
I14
tp2049
a(g45
g101
I2
tp2050
a(g303
g790
I3
tp2051
a(g143
g520
I39
tp2052
a(g73
g629
I23
tp2053
a(g30
g124
I33
tp2054
a(g101
g122
I12
tp2055
a(g49
g56
I32
tp2056
a(g248
g52
I37
tp2057
a(g83
g164
I23
tp2058
a(g305
g194
I39
tp2059
a(g48
g53
I18
tp2060
a(g182
g10
I23
tp2061
a(g158
g496
I38
tp2062
a(g139
g148
I5
tp2063
a(g200
g41
I33
tp2064
a(g114
g41
I11
tp2065
a(g114
g107
I31
tp2066
a(g769
g158
I39
tp2067
a(g58
g122
I15
tp2068
a(g52
g126
I38
tp2069
a(g282
g117
I19
tp2070
a(g169
g239
I38
tp2071
a(g188
g317
I12
tp2072
a(g520
g81
I16
tp2073
a(g203
g28
I12
tp2074
a(g52
g341
I9
tp2075
a(g131
g424
I10
tp2076
a(g157
g148
I34
tp2077
a(g131
g56
I37
tp2078
a(g58
g239
I13
tp2079
a(g64
g169
I23
tp2080
a(g83
g10
I30
tp2081
a(g460
g41
I26
tp2082
a(g169
g250
I17
tp2083
a(g14
g171
I0
tp2084
a(g196
g274
I9
tp2085
a(g113
g19
I14
tp2086
a(g62
g119
I15
tp2087
a(g24
g299
I21
tp2088
a(g143
g496
I32
tp2089
a(g77
g227
I35
tp2090
a(g571
g509
I8
tp2091
a.